
./bin/whoami:     file format elf64-x86-64


Disassembly of section .text:

0000000000002310 <.text>:
    2310:	e8 2b fd ff ff       	call   2040 <abort@plt>
    2315:	e8 26 fd ff ff       	call   2040 <abort@plt>
    231a:	50                   	push   %rax
    231b:	e8 20 fd ff ff       	call   2040 <abort@plt>
    2320:	e8 1b fd ff ff       	call   2040 <abort@plt>
    2325:	e8 16 fd ff ff       	call   2040 <abort@plt>
    232a:	e8 11 fd ff ff       	call   2040 <abort@plt>
    232f:	e8 0c fd ff ff       	call   2040 <abort@plt>
    2334:	e8 07 fd ff ff       	call   2040 <abort@plt>
    2339:	e8 02 fd ff ff       	call   2040 <abort@plt>
    233e:	e8 fd fc ff ff       	call   2040 <abort@plt>
    2343:	e8 f8 fc ff ff       	call   2040 <abort@plt>
    2348:	e8 f3 fc ff ff       	call   2040 <abort@plt>
    234d:	0f 1f 00             	nopl   (%rax)
    2350:	41 54                	push   %r12
    2352:	4c 8d 25 43 4d 00 00 	lea    0x4d43(%rip),%r12        # 709c <__cxa_finalize@plt+0x4d9c>
    2359:	55                   	push   %rbp
    235a:	89 fd                	mov    %edi,%ebp
    235c:	53                   	push   %rbx
    235d:	48 8b 3e             	mov    (%rsi),%rdi
    2360:	48 89 f3             	mov    %rsi,%rbx
    2363:	e8 a8 08 00 00       	call   2c10 <__cxa_finalize@plt+0x910>
    2368:	48 8d 35 c3 4c 00 00 	lea    0x4cc3(%rip),%rsi        # 7032 <__cxa_finalize@plt+0x4d32>
    236f:	bf 06 00 00 00       	mov    $0x6,%edi
    2374:	e8 d7 fe ff ff       	call   2250 <setlocale@plt>
    2379:	48 8d 35 45 4d 00 00 	lea    0x4d45(%rip),%rsi        # 70c5 <__cxa_finalize@plt+0x4dc5>
    2380:	4c 89 e7             	mov    %r12,%rdi
    2383:	e8 58 fd ff ff       	call   20e0 <bindtextdomain@plt>
    2388:	4c 89 e7             	mov    %r12,%rdi
    238b:	e8 20 fd ff ff       	call   20b0 <textdomain@plt>
    2390:	48 8d 3d 49 05 00 00 	lea    0x549(%rip),%rdi        # 28e0 <__cxa_finalize@plt+0x5e0>
    2397:	e8 e4 3c 00 00       	call   6080 <__cxa_finalize@plt+0x3d80>
    239c:	41 b9 01 00 00 00    	mov    $0x1,%r9d
    23a2:	48 89 de             	mov    %rbx,%rsi
    23a5:	89 ef                	mov    %ebp,%edi
    23a7:	48 83 ec 08          	sub    $0x8,%rsp
    23ab:	48 8d 05 25 4d 00 00 	lea    0x4d25(%rip),%rax        # 70d7 <__cxa_finalize@plt+0x4dd7>
    23b2:	4c 8b 05 d7 7d 00 00 	mov    0x7dd7(%rip),%r8        # a190 <__cxa_finalize@plt+0x7e90>
    23b9:	48 8d 0d d8 4c 00 00 	lea    0x4cd8(%rip),%rcx        # 7098 <__cxa_finalize@plt+0x4d98>
    23c0:	6a 00                	push   $0x0
    23c2:	48 8d 15 3d 4c 00 00 	lea    0x4c3d(%rip),%rdx        # 7006 <__cxa_finalize@plt+0x4d06>
    23c9:	50                   	push   %rax
    23ca:	48 8d 05 af 01 00 00 	lea    0x1af(%rip),%rax        # 2580 <__cxa_finalize@plt+0x280>
    23d1:	50                   	push   %rax
    23d2:	31 c0                	xor    %eax,%eax
    23d4:	e8 f7 06 00 00       	call   2ad0 <__cxa_finalize@plt+0x7d0>
    23d9:	48 63 05 30 7e 00 00 	movslq 0x7e30(%rip),%rax        # a210 <optind@GLIBC_2.2.5>
    23e0:	48 83 c4 20          	add    $0x20,%rsp
    23e4:	39 e8                	cmp    %ebp,%eax
    23e6:	75 62                	jne    244a <__cxa_finalize@plt+0x14a>
    23e8:	e8 63 fc ff ff       	call   2050 <__errno_location@plt>
    23ed:	c7 00 00 00 00 00    	movl   $0x0,(%rax)
    23f3:	48 89 c5             	mov    %rax,%rbp
    23f6:	e8 85 fd ff ff       	call   2180 <geteuid@plt>
    23fb:	89 c3                	mov    %eax,%ebx
    23fd:	83 f8 ff             	cmp    $0xffffffff,%eax
    2400:	75 06                	jne    2408 <__cxa_finalize@plt+0x108>
    2402:	83 7d 00 00          	cmpl   $0x0,0x0(%rbp)
    2406:	75 1b                	jne    2423 <__cxa_finalize@plt+0x123>
    2408:	89 df                	mov    %ebx,%edi
    240a:	e8 c1 fc ff ff       	call   20d0 <getpwuid@plt>
    240f:	48 85 c0             	test   %rax,%rax
    2412:	74 0f                	je     2423 <__cxa_finalize@plt+0x123>
    2414:	48 8b 38             	mov    (%rax),%rdi
    2417:	e8 74 fc ff ff       	call   2090 <puts@plt>
    241c:	5b                   	pop    %rbx
    241d:	31 c0                	xor    %eax,%eax
    241f:	5d                   	pop    %rbp
    2420:	41 5c                	pop    %r12
    2422:	c3                   	ret
    2423:	ba 05 00 00 00       	mov    $0x5,%edx
    2428:	48 8d 35 69 4e 00 00 	lea    0x4e69(%rip),%rsi        # 7298 <__cxa_finalize@plt+0x4f98>
    242f:	31 ff                	xor    %edi,%edi
    2431:	e8 ba fc ff ff       	call   20f0 <dcgettext@plt>
    2436:	8b 75 00             	mov    0x0(%rbp),%esi
    2439:	89 d9                	mov    %ebx,%ecx
    243b:	bf 01 00 00 00       	mov    $0x1,%edi
    2440:	48 89 c2             	mov    %rax,%rdx
    2443:	31 c0                	xor    %eax,%eax
    2445:	e8 26 fe ff ff       	call   2270 <error@plt>
    244a:	48 8b 3c c3          	mov    (%rbx,%rax,8),%rdi
    244e:	e8 5d 2c 00 00       	call   50b0 <__cxa_finalize@plt+0x2db0>
    2453:	ba 05 00 00 00       	mov    $0x5,%edx
    2458:	48 8d 35 89 4c 00 00 	lea    0x4c89(%rip),%rsi        # 70e8 <__cxa_finalize@plt+0x4de8>
    245f:	31 ff                	xor    %edi,%edi
    2461:	48 89 c3             	mov    %rax,%rbx
    2464:	e8 87 fc ff ff       	call   20f0 <dcgettext@plt>
    2469:	31 ff                	xor    %edi,%edi
    246b:	48 89 d9             	mov    %rbx,%rcx
    246e:	31 f6                	xor    %esi,%esi
    2470:	48 89 c2             	mov    %rax,%rdx
    2473:	31 c0                	xor    %eax,%eax
    2475:	e8 f6 fd ff ff       	call   2270 <error@plt>
    247a:	bf 01 00 00 00       	mov    $0x1,%edi
    247f:	e8 fc 00 00 00       	call   2580 <__cxa_finalize@plt+0x280>
    2484:	66 2e 0f 1f 84 00 00 	cs nopw 0x0(%rax,%rax,1)
    248b:	00 00 00 
    248e:	66 90                	xchg   %ax,%ax
    2490:	31 ed                	xor    %ebp,%ebp
    2492:	49 89 d1             	mov    %rdx,%r9
    2495:	5e                   	pop    %rsi
    2496:	48 89 e2             	mov    %rsp,%rdx
    2499:	48 83 e4 f0          	and    $0xfffffffffffffff0,%rsp
    249d:	50                   	push   %rax
    249e:	54                   	push   %rsp
    249f:	45 31 c0             	xor    %r8d,%r8d
    24a2:	31 c9                	xor    %ecx,%ecx
    24a4:	48 8d 3d a5 fe ff ff 	lea    -0x15b(%rip),%rdi        # 2350 <__cxa_finalize@plt+0x50>
    24ab:	ff 15 07 7b 00 00    	call   *0x7b07(%rip)        # 9fb8 <__cxa_finalize@plt+0x7cb8>
    24b1:	f4                   	hlt
    24b2:	66 2e 0f 1f 84 00 00 	cs nopw 0x0(%rax,%rax,1)
    24b9:	00 00 00 
    24bc:	0f 1f 40 00          	nopl   0x0(%rax)
    24c0:	48 8d 3d 39 7d 00 00 	lea    0x7d39(%rip),%rdi        # a200 <__progname@GLIBC_2.2.5>
    24c7:	48 8d 05 32 7d 00 00 	lea    0x7d32(%rip),%rax        # a200 <__progname@GLIBC_2.2.5>
    24ce:	48 39 f8             	cmp    %rdi,%rax
    24d1:	74 15                	je     24e8 <__cxa_finalize@plt+0x1e8>
    24d3:	48 8b 05 e6 7a 00 00 	mov    0x7ae6(%rip),%rax        # 9fc0 <__cxa_finalize@plt+0x7cc0>
    24da:	48 85 c0             	test   %rax,%rax
    24dd:	74 09                	je     24e8 <__cxa_finalize@plt+0x1e8>
    24df:	ff e0                	jmp    *%rax
    24e1:	0f 1f 80 00 00 00 00 	nopl   0x0(%rax)
    24e8:	c3                   	ret
    24e9:	0f 1f 80 00 00 00 00 	nopl   0x0(%rax)
    24f0:	48 8d 3d 09 7d 00 00 	lea    0x7d09(%rip),%rdi        # a200 <__progname@GLIBC_2.2.5>
    24f7:	48 8d 35 02 7d 00 00 	lea    0x7d02(%rip),%rsi        # a200 <__progname@GLIBC_2.2.5>
    24fe:	48 29 fe             	sub    %rdi,%rsi
    2501:	48 89 f0             	mov    %rsi,%rax
    2504:	48 c1 ee 3f          	shr    $0x3f,%rsi
    2508:	48 c1 f8 03          	sar    $0x3,%rax
    250c:	48 01 c6             	add    %rax,%rsi
    250f:	48 d1 fe             	sar    %rsi
    2512:	74 14                	je     2528 <__cxa_finalize@plt+0x228>
    2514:	48 8b 05 b5 7a 00 00 	mov    0x7ab5(%rip),%rax        # 9fd0 <__cxa_finalize@plt+0x7cd0>
    251b:	48 85 c0             	test   %rax,%rax
    251e:	74 08                	je     2528 <__cxa_finalize@plt+0x228>
    2520:	ff e0                	jmp    *%rax
    2522:	66 0f 1f 44 00 00    	nopw   0x0(%rax,%rax,1)
    2528:	c3                   	ret
    2529:	0f 1f 80 00 00 00 00 	nopl   0x0(%rax)
    2530:	f3 0f 1e fa          	endbr64
    2534:	80 3d 0d 7d 00 00 00 	cmpb   $0x0,0x7d0d(%rip)        # a248 <stderr@GLIBC_2.2.5+0x8>
    253b:	75 2b                	jne    2568 <__cxa_finalize@plt+0x268>
    253d:	55                   	push   %rbp
    253e:	48 83 3d 92 7a 00 00 	cmpq   $0x0,0x7a92(%rip)        # 9fd8 <__cxa_finalize@plt+0x7cd8>
    2545:	00 
    2546:	48 89 e5             	mov    %rsp,%rbp
    2549:	74 0c                	je     2557 <__cxa_finalize@plt+0x257>
    254b:	48 8b 3d 36 7c 00 00 	mov    0x7c36(%rip),%rdi        # a188 <__cxa_finalize@plt+0x7e88>
    2552:	e8 a9 fd ff ff       	call   2300 <__cxa_finalize@plt>
    2557:	e8 64 ff ff ff       	call   24c0 <__cxa_finalize@plt+0x1c0>
    255c:	c6 05 e5 7c 00 00 01 	movb   $0x1,0x7ce5(%rip)        # a248 <stderr@GLIBC_2.2.5+0x8>
    2563:	5d                   	pop    %rbp
    2564:	c3                   	ret
    2565:	0f 1f 00             	nopl   (%rax)
    2568:	c3                   	ret
    2569:	0f 1f 80 00 00 00 00 	nopl   0x0(%rax)
    2570:	f3 0f 1e fa          	endbr64
    2574:	e9 77 ff ff ff       	jmp    24f0 <__cxa_finalize@plt+0x1f0>
    2579:	0f 1f 80 00 00 00 00 	nopl   0x0(%rax)
    2580:	41 56                	push   %r14
    2582:	ba 05 00 00 00       	mov    $0x5,%edx
    2587:	41 55                	push   %r13
    2589:	41 54                	push   %r12
    258b:	41 89 fc             	mov    %edi,%r12d
    258e:	55                   	push   %rbp
    258f:	53                   	push   %rbx
    2590:	48 83 c4 80          	add    $0xffffffffffffff80,%rsp
    2594:	48 8b 1d c5 7c 00 00 	mov    0x7cc5(%rip),%rbx        # a260 <stderr@GLIBC_2.2.5+0x20>
    259b:	64 48 8b 04 25 28 00 	mov    %fs:0x28,%rax
    25a2:	00 00 
    25a4:	48 89 44 24 78       	mov    %rax,0x78(%rsp)
    25a9:	31 c0                	xor    %eax,%eax
    25ab:	85 ff                	test   %edi,%edi
    25ad:	74 2f                	je     25de <__cxa_finalize@plt+0x2de>
    25af:	48 8d 35 4a 4b 00 00 	lea    0x4b4a(%rip),%rsi        # 7100 <__cxa_finalize@plt+0x4e00>
    25b6:	31 ff                	xor    %edi,%edi
    25b8:	e8 33 fb ff ff       	call   20f0 <dcgettext@plt>
    25bd:	48 8b 3d 7c 7c 00 00 	mov    0x7c7c(%rip),%rdi        # a240 <stderr@GLIBC_2.2.5>
    25c4:	48 89 d9             	mov    %rbx,%rcx
    25c7:	be 01 00 00 00       	mov    $0x1,%esi
    25cc:	48 89 c2             	mov    %rax,%rdx
    25cf:	31 c0                	xor    %eax,%eax
    25d1:	e8 ea fc ff ff       	call   22c0 <__fprintf_chk@plt>
    25d6:	44 89 e7             	mov    %r12d,%edi
    25d9:	e8 c2 fc ff ff       	call   22a0 <exit@plt>
    25de:	48 8d 35 37 4a 00 00 	lea    0x4a37(%rip),%rsi        # 701c <__cxa_finalize@plt+0x4d1c>
    25e5:	31 ff                	xor    %edi,%edi
    25e7:	48 8d 2d 18 4a 00 00 	lea    0x4a18(%rip),%rbp        # 7006 <__cxa_finalize@plt+0x4d06>
    25ee:	e8 fd fa ff ff       	call   20f0 <dcgettext@plt>
    25f3:	48 89 da             	mov    %rbx,%rdx
    25f6:	bf 01 00 00 00       	mov    $0x1,%edi
    25fb:	48 89 c6             	mov    %rax,%rsi
    25fe:	31 c0                	xor    %eax,%eax
    2600:	e8 5b fc ff ff       	call   2260 <__printf_chk@plt>
    2605:	48 8b 1d fc 7b 00 00 	mov    0x7bfc(%rip),%rbx        # a208 <stdout@GLIBC_2.2.5>
    260c:	ba 05 00 00 00       	mov    $0x5,%edx
    2611:	31 ff                	xor    %edi,%edi
    2613:	48 8d 35 0e 4b 00 00 	lea    0x4b0e(%rip),%rsi        # 7128 <__cxa_finalize@plt+0x4e28>
    261a:	e8 d1 fa ff ff       	call   20f0 <dcgettext@plt>
    261f:	48 89 de             	mov    %rbx,%rsi
    2622:	48 89 c7             	mov    %rax,%rdi
    2625:	e8 76 fb ff ff       	call   21a0 <fputs_unlocked@plt>
    262a:	48 8b 1d d7 7b 00 00 	mov    0x7bd7(%rip),%rbx        # a208 <stdout@GLIBC_2.2.5>
    2631:	ba 05 00 00 00       	mov    $0x5,%edx
    2636:	31 ff                	xor    %edi,%edi
    2638:	48 8d 35 41 4b 00 00 	lea    0x4b41(%rip),%rsi        # 7180 <__cxa_finalize@plt+0x4e80>
    263f:	e8 ac fa ff ff       	call   20f0 <dcgettext@plt>
    2644:	48 89 de             	mov    %rbx,%rsi
    2647:	48 89 c7             	mov    %rax,%rdi
    264a:	e8 51 fb ff ff       	call   21a0 <fputs_unlocked@plt>
    264f:	48 8b 1d b2 7b 00 00 	mov    0x7bb2(%rip),%rbx        # a208 <stdout@GLIBC_2.2.5>
    2656:	ba 05 00 00 00       	mov    $0x5,%edx
    265b:	31 ff                	xor    %edi,%edi
    265d:	48 8d 35 4c 4b 00 00 	lea    0x4b4c(%rip),%rsi        # 71b0 <__cxa_finalize@plt+0x4eb0>
    2664:	e8 87 fa ff ff       	call   20f0 <dcgettext@plt>
    2669:	48 89 de             	mov    %rbx,%rsi
    266c:	48 89 e3             	mov    %rsp,%rbx
    266f:	48 89 c7             	mov    %rax,%rdi
    2672:	e8 29 fb ff ff       	call   21a0 <fputs_unlocked@plt>
    2677:	48 8d 05 b5 49 00 00 	lea    0x49b5(%rip),%rax        # 7033 <__cxa_finalize@plt+0x4d33>
    267e:	48 8d 35 7f 49 00 00 	lea    0x497f(%rip),%rsi        # 7004 <__cxa_finalize@plt+0x4d04>
    2685:	66 48 0f 6e d0       	movq   %rax,%xmm2
    268a:	66 48 0f 6e ce       	movq   %rsi,%xmm1
    268f:	48 8d 05 ad 49 00 00 	lea    0x49ad(%rip),%rax        # 7043 <__cxa_finalize@plt+0x4d43>
    2696:	66 0f 6c ca          	punpcklqdq %xmm2,%xmm1
    269a:	48 8d 0d fb 49 00 00 	lea    0x49fb(%rip),%rcx        # 709c <__cxa_finalize@plt+0x4d9c>
    26a1:	66 48 0f 6e d8       	movq   %rax,%xmm3
    26a6:	0f 29 0c 24          	movaps %xmm1,(%rsp)
    26aa:	66 48 0f 6e c9       	movq   %rcx,%xmm1
    26af:	48 8d 05 a3 49 00 00 	lea    0x49a3(%rip),%rax        # 7059 <__cxa_finalize@plt+0x4d59>
    26b6:	66 0f 6c cb          	punpcklqdq %xmm3,%xmm1
    26ba:	0f 29 4c 24 10       	movaps %xmm1,0x10(%rsp)
    26bf:	66 48 0f 6e c8       	movq   %rax,%xmm1
    26c4:	48 8d 05 42 49 00 00 	lea    0x4942(%rip),%rax        # 700d <__cxa_finalize@plt+0x4d0d>
    26cb:	66 48 0f 6e c0       	movq   %rax,%xmm0
    26d0:	48 8d 05 8c 49 00 00 	lea    0x498c(%rip),%rax        # 7063 <__cxa_finalize@plt+0x4d63>
    26d7:	66 0f 6c c8          	punpcklqdq %xmm0,%xmm1
    26db:	0f 29 4c 24 20       	movaps %xmm1,0x20(%rsp)
    26e0:	66 48 0f 6e c8       	movq   %rax,%xmm1
    26e5:	48 8d 05 81 49 00 00 	lea    0x4981(%rip),%rax        # 706d <__cxa_finalize@plt+0x4d6d>
    26ec:	66 0f 6c c8          	punpcklqdq %xmm0,%xmm1
    26f0:	0f 29 4c 24 30       	movaps %xmm1,0x30(%rsp)
    26f5:	66 48 0f 6e c8       	movq   %rax,%xmm1
    26fa:	48 8d 05 76 49 00 00 	lea    0x4976(%rip),%rax        # 7077 <__cxa_finalize@plt+0x4d77>
    2701:	66 0f 6c c8          	punpcklqdq %xmm0,%xmm1
    2705:	0f 29 4c 24 40       	movaps %xmm1,0x40(%rsp)
    270a:	66 48 0f 6e c8       	movq   %rax,%xmm1
    270f:	66 0f 6c c8          	punpcklqdq %xmm0,%xmm1
    2713:	66 0f ef c0          	pxor   %xmm0,%xmm0
    2717:	0f 29 4c 24 50       	movaps %xmm1,0x50(%rsp)
    271c:	0f 29 44 24 60       	movaps %xmm0,0x60(%rsp)
    2721:	eb 12                	jmp    2735 <__cxa_finalize@plt+0x435>
    2723:	0f 1f 44 00 00       	nopl   0x0(%rax,%rax,1)
    2728:	48 8b 73 10          	mov    0x10(%rbx),%rsi
    272c:	48 83 c3 10          	add    $0x10,%rbx
    2730:	48 85 f6             	test   %rsi,%rsi
    2733:	74 0c                	je     2741 <__cxa_finalize@plt+0x441>
    2735:	48 89 ef             	mov    %rbp,%rdi
    2738:	e8 83 fa ff ff       	call   21c0 <strcmp@plt>
    273d:	85 c0                	test   %eax,%eax
    273f:	75 e7                	jne    2728 <__cxa_finalize@plt+0x428>
    2741:	4c 8b 6b 08          	mov    0x8(%rbx),%r13
    2745:	ba 05 00 00 00       	mov    $0x5,%edx
    274a:	48 8d 35 30 49 00 00 	lea    0x4930(%rip),%rsi        # 7081 <__cxa_finalize@plt+0x4d81>
    2751:	31 ff                	xor    %edi,%edi
    2753:	4d 85 ed             	test   %r13,%r13
    2756:	0f 84 b7 00 00 00    	je     2813 <__cxa_finalize@plt+0x513>
    275c:	e8 8f f9 ff ff       	call   20f0 <dcgettext@plt>
    2761:	48 8d 1d 88 4a 00 00 	lea    0x4a88(%rip),%rbx        # 71f0 <__cxa_finalize@plt+0x4ef0>
    2768:	bf 01 00 00 00       	mov    $0x1,%edi
    276d:	48 8d 15 24 49 00 00 	lea    0x4924(%rip),%rdx        # 7098 <__cxa_finalize@plt+0x4d98>
    2774:	48 89 c6             	mov    %rax,%rsi
    2777:	48 89 d9             	mov    %rbx,%rcx
    277a:	31 c0                	xor    %eax,%eax
    277c:	e8 df fa ff ff       	call   2260 <__printf_chk@plt>
    2781:	bf 05 00 00 00       	mov    $0x5,%edi
    2786:	31 f6                	xor    %esi,%esi
    2788:	e8 c3 fa ff ff       	call   2250 <setlocale@plt>
    278d:	48 89 c7             	mov    %rax,%rdi
    2790:	48 85 c0             	test   %rax,%rax
    2793:	74 19                	je     27ae <__cxa_finalize@plt+0x4ae>
    2795:	ba 03 00 00 00       	mov    $0x3,%edx
    279a:	48 8d 35 05 49 00 00 	lea    0x4905(%rip),%rsi        # 70a6 <__cxa_finalize@plt+0x4da6>
    27a1:	e8 ba f8 ff ff       	call   2060 <strncmp@plt>
    27a6:	85 c0                	test   %eax,%eax
    27a8:	0f 85 e4 00 00 00    	jne    2892 <__cxa_finalize@plt+0x592>
    27ae:	ba 05 00 00 00       	mov    $0x5,%edx
    27b3:	48 8d 35 f0 48 00 00 	lea    0x48f0(%rip),%rsi        # 70aa <__cxa_finalize@plt+0x4daa>
    27ba:	31 ff                	xor    %edi,%edi
    27bc:	e8 2f f9 ff ff       	call   20f0 <dcgettext@plt>
    27c1:	48 89 da             	mov    %rbx,%rdx
    27c4:	48 89 e9             	mov    %rbp,%rcx
    27c7:	bf 01 00 00 00       	mov    $0x1,%edi
    27cc:	48 89 c6             	mov    %rax,%rsi
    27cf:	31 c0                	xor    %eax,%eax
    27d1:	48 8d 1d 5a 48 00 00 	lea    0x485a(%rip),%rbx        # 7032 <__cxa_finalize@plt+0x4d32>
    27d8:	e8 83 fa ff ff       	call   2260 <__printf_chk@plt>
    27dd:	49 39 ed             	cmp    %rbp,%r13
    27e0:	0f 84 99 00 00 00    	je     287f <__cxa_finalize@plt+0x57f>
    27e6:	31 ff                	xor    %edi,%edi
    27e8:	ba 05 00 00 00       	mov    $0x5,%edx
    27ed:	48 8d 35 6c 4a 00 00 	lea    0x4a6c(%rip),%rsi        # 7260 <__cxa_finalize@plt+0x4f60>
    27f4:	e8 f7 f8 ff ff       	call   20f0 <dcgettext@plt>
    27f9:	48 89 d9             	mov    %rbx,%rcx
    27fc:	4c 89 ea             	mov    %r13,%rdx
    27ff:	bf 01 00 00 00       	mov    $0x1,%edi
    2804:	48 89 c6             	mov    %rax,%rsi
    2807:	31 c0                	xor    %eax,%eax
    2809:	e8 52 fa ff ff       	call   2260 <__printf_chk@plt>
    280e:	e9 c3 fd ff ff       	jmp    25d6 <__cxa_finalize@plt+0x2d6>
    2813:	e8 d8 f8 ff ff       	call   20f0 <dcgettext@plt>
    2818:	48 8d 1d d1 49 00 00 	lea    0x49d1(%rip),%rbx        # 71f0 <__cxa_finalize@plt+0x4ef0>
    281f:	48 8d 15 72 48 00 00 	lea    0x4872(%rip),%rdx        # 7098 <__cxa_finalize@plt+0x4d98>
    2826:	bf 01 00 00 00       	mov    $0x1,%edi
    282b:	48 89 c6             	mov    %rax,%rsi
    282e:	48 89 d9             	mov    %rbx,%rcx
    2831:	4c 8d 2d ce 47 00 00 	lea    0x47ce(%rip),%r13        # 7006 <__cxa_finalize@plt+0x4d06>
    2838:	31 c0                	xor    %eax,%eax
    283a:	e8 21 fa ff ff       	call   2260 <__printf_chk@plt>
    283f:	bf 05 00 00 00       	mov    $0x5,%edi
    2844:	31 f6                	xor    %esi,%esi
    2846:	e8 05 fa ff ff       	call   2250 <setlocale@plt>
    284b:	48 89 c7             	mov    %rax,%rdi
    284e:	48 85 c0             	test   %rax,%rax
    2851:	0f 85 3e ff ff ff    	jne    2795 <__cxa_finalize@plt+0x495>
    2857:	ba 05 00 00 00       	mov    $0x5,%edx
    285c:	48 8d 35 47 48 00 00 	lea    0x4847(%rip),%rsi        # 70aa <__cxa_finalize@plt+0x4daa>
    2863:	31 ff                	xor    %edi,%edi
    2865:	e8 86 f8 ff ff       	call   20f0 <dcgettext@plt>
    286a:	48 89 e9             	mov    %rbp,%rcx
    286d:	48 89 da             	mov    %rbx,%rdx
    2870:	bf 01 00 00 00       	mov    $0x1,%edi
    2875:	48 89 c6             	mov    %rax,%rsi
    2878:	31 c0                	xor    %eax,%eax
    287a:	e8 e1 f9 ff ff       	call   2260 <__printf_chk@plt>
    287f:	4c 8d 2d 80 47 00 00 	lea    0x4780(%rip),%r13        # 7006 <__cxa_finalize@plt+0x4d06>
    2886:	48 8d 1d c0 47 00 00 	lea    0x47c0(%rip),%rbx        # 704d <__cxa_finalize@plt+0x4d4d>
    288d:	e9 54 ff ff ff       	jmp    27e6 <__cxa_finalize@plt+0x4e6>
    2892:	4c 8b 35 6f 79 00 00 	mov    0x796f(%rip),%r14        # a208 <stdout@GLIBC_2.2.5>
    2899:	31 ff                	xor    %edi,%edi
    289b:	ba 05 00 00 00       	mov    $0x5,%edx
    28a0:	48 8d 35 71 49 00 00 	lea    0x4971(%rip),%rsi        # 7218 <__cxa_finalize@plt+0x4f18>
    28a7:	e8 44 f8 ff ff       	call   20f0 <dcgettext@plt>
    28ac:	48 89 c7             	mov    %rax,%rdi
    28af:	4c 89 f6             	mov    %r14,%rsi
    28b2:	e8 e9 f8 ff ff       	call   21a0 <fputs_unlocked@plt>
    28b7:	e9 f2 fe ff ff       	jmp    27ae <__cxa_finalize@plt+0x4ae>
    28bc:	0f 1f 40 00          	nopl   0x0(%rax)
    28c0:	48 89 3d 91 79 00 00 	mov    %rdi,0x7991(%rip)        # a258 <stderr@GLIBC_2.2.5+0x18>
    28c7:	c3                   	ret
    28c8:	0f 1f 84 00 00 00 00 	nopl   0x0(%rax,%rax,1)
    28cf:	00 
    28d0:	40 88 3d 79 79 00 00 	mov    %dil,0x7979(%rip)        # a250 <stderr@GLIBC_2.2.5+0x10>
    28d7:	c3                   	ret
    28d8:	0f 1f 84 00 00 00 00 	nopl   0x0(%rax,%rax,1)
    28df:	00 
    28e0:	55                   	push   %rbp
    28e1:	53                   	push   %rbx
    28e2:	48 83 ec 08          	sub    $0x8,%rsp
    28e6:	48 8b 3d 1b 79 00 00 	mov    0x791b(%rip),%rdi        # a208 <stdout@GLIBC_2.2.5>
    28ed:	e8 1e 34 00 00       	call   5d10 <__cxa_finalize@plt+0x3a10>
    28f2:	85 c0                	test   %eax,%eax
    28f4:	74 13                	je     2909 <__cxa_finalize@plt+0x609>
    28f6:	80 3d 53 79 00 00 00 	cmpb   $0x0,0x7953(%rip)        # a250 <stderr@GLIBC_2.2.5+0x10>
    28fd:	74 21                	je     2920 <__cxa_finalize@plt+0x620>
    28ff:	e8 4c f7 ff ff       	call   2050 <__errno_location@plt>
    2904:	83 38 20             	cmpl   $0x20,(%rax)
    2907:	75 17                	jne    2920 <__cxa_finalize@plt+0x620>
    2909:	48 8b 3d 30 79 00 00 	mov    0x7930(%rip),%rdi        # a240 <stderr@GLIBC_2.2.5>
    2910:	e8 fb 33 00 00       	call   5d10 <__cxa_finalize@plt+0x3a10>
    2915:	85 c0                	test   %eax,%eax
    2917:	75 4e                	jne    2967 <__cxa_finalize@plt+0x667>
    2919:	48 83 c4 08          	add    $0x8,%rsp
    291d:	5b                   	pop    %rbx
    291e:	5d                   	pop    %rbp
    291f:	c3                   	ret
    2920:	31 ff                	xor    %edi,%edi
    2922:	ba 05 00 00 00       	mov    $0x5,%edx
    2927:	48 8d 35 8f 49 00 00 	lea    0x498f(%rip),%rsi        # 72bd <__cxa_finalize@plt+0x4fbd>
    292e:	e8 bd f7 ff ff       	call   20f0 <dcgettext@plt>
    2933:	48 8b 3d 1e 79 00 00 	mov    0x791e(%rip),%rdi        # a258 <stderr@GLIBC_2.2.5+0x18>
    293a:	48 89 c3             	mov    %rax,%rbx
    293d:	48 85 ff             	test   %rdi,%rdi
    2940:	74 30                	je     2972 <__cxa_finalize@plt+0x672>
    2942:	e8 f9 22 00 00       	call   4c40 <__cxa_finalize@plt+0x2940>
    2947:	48 89 c5             	mov    %rax,%rbp
    294a:	e8 01 f7 ff ff       	call   2050 <__errno_location@plt>
    294f:	49 89 d8             	mov    %rbx,%r8
    2952:	48 89 e9             	mov    %rbp,%rcx
    2955:	31 ff                	xor    %edi,%edi
    2957:	8b 30                	mov    (%rax),%esi
    2959:	48 8d 15 69 49 00 00 	lea    0x4969(%rip),%rdx        # 72c9 <__cxa_finalize@plt+0x4fc9>
    2960:	31 c0                	xor    %eax,%eax
    2962:	e8 09 f9 ff ff       	call   2270 <error@plt>
    2967:	8b 3d 2b 78 00 00    	mov    0x782b(%rip),%edi        # a198 <__cxa_finalize@plt+0x7e98>
    296d:	e8 fe f6 ff ff       	call   2070 <_exit@plt>
    2972:	e8 d9 f6 ff ff       	call   2050 <__errno_location@plt>
    2977:	48 89 d9             	mov    %rbx,%rcx
    297a:	48 8d 15 4c 49 00 00 	lea    0x494c(%rip),%rdx        # 72cd <__cxa_finalize@plt+0x4fcd>
    2981:	31 ff                	xor    %edi,%edi
    2983:	8b 30                	mov    (%rax),%esi
    2985:	31 c0                	xor    %eax,%eax
    2987:	e8 e4 f8 ff ff       	call   2270 <error@plt>
    298c:	eb d9                	jmp    2967 <__cxa_finalize@plt+0x667>
    298e:	66 90                	xchg   %ax,%ax
    2990:	41 56                	push   %r14
    2992:	41 55                	push   %r13
    2994:	49 89 d5             	mov    %rdx,%r13
    2997:	41 54                	push   %r12
    2999:	49 89 cc             	mov    %rcx,%r12
    299c:	55                   	push   %rbp
    299d:	4c 89 c5             	mov    %r8,%rbp
    29a0:	53                   	push   %rbx
    29a1:	4c 89 cb             	mov    %r9,%rbx
    29a4:	48 81 ec d0 00 00 00 	sub    $0xd0,%rsp
    29ab:	84 c0                	test   %al,%al
    29ad:	74 37                	je     29e6 <__cxa_finalize@plt+0x6e6>
    29af:	0f 29 44 24 50       	movaps %xmm0,0x50(%rsp)
    29b4:	0f 29 4c 24 60       	movaps %xmm1,0x60(%rsp)
    29b9:	0f 29 54 24 70       	movaps %xmm2,0x70(%rsp)
    29be:	0f 29 9c 24 80 00 00 	movaps %xmm3,0x80(%rsp)
    29c5:	00 
    29c6:	0f 29 a4 24 90 00 00 	movaps %xmm4,0x90(%rsp)
    29cd:	00 
    29ce:	0f 29 ac 24 a0 00 00 	movaps %xmm5,0xa0(%rsp)
    29d5:	00 
    29d6:	0f 29 b4 24 b0 00 00 	movaps %xmm6,0xb0(%rsp)
    29dd:	00 
    29de:	0f 29 bc 24 c0 00 00 	movaps %xmm7,0xc0(%rsp)
    29e5:	00 
    29e6:	64 48 8b 04 25 28 00 	mov    %fs:0x28,%rax
    29ed:	00 00 
    29ef:	48 89 44 24 18       	mov    %rax,0x18(%rsp)
    29f4:	31 c0                	xor    %eax,%eax
    29f6:	44 8b 35 23 78 00 00 	mov    0x7823(%rip),%r14d        # a220 <opterr@GLIBC_2.2.5>
    29fd:	c7 05 19 78 00 00 00 	movl   $0x0,0x7819(%rip)        # a220 <opterr@GLIBC_2.2.5>
    2a04:	00 00 00 
    2a07:	83 ff 02             	cmp    $0x2,%edi
    2a0a:	74 3c                	je     2a48 <__cxa_finalize@plt+0x748>
    2a0c:	44 89 35 0d 78 00 00 	mov    %r14d,0x780d(%rip)        # a220 <opterr@GLIBC_2.2.5>
    2a13:	c7 05 f3 77 00 00 00 	movl   $0x0,0x77f3(%rip)        # a210 <optind@GLIBC_2.2.5>
    2a1a:	00 00 00 
    2a1d:	48 8b 44 24 18       	mov    0x18(%rsp),%rax
    2a22:	64 48 2b 04 25 28 00 	sub    %fs:0x28,%rax
    2a29:	00 00 
    2a2b:	0f 85 90 00 00 00    	jne    2ac1 <__cxa_finalize@plt+0x7c1>
    2a31:	48 81 c4 d0 00 00 00 	add    $0xd0,%rsp
    2a38:	5b                   	pop    %rbx
    2a39:	5d                   	pop    %rbp
    2a3a:	41 5c                	pop    %r12
    2a3c:	41 5d                	pop    %r13
    2a3e:	41 5e                	pop    %r14
    2a40:	c3                   	ret
    2a41:	0f 1f 80 00 00 00 00 	nopl   0x0(%rax)
    2a48:	45 31 c0             	xor    %r8d,%r8d
    2a4b:	48 8d 0d ce 72 00 00 	lea    0x72ce(%rip),%rcx        # 9d20 <__cxa_finalize@plt+0x7a20>
    2a52:	48 8d 15 77 48 00 00 	lea    0x4877(%rip),%rdx        # 72d0 <__cxa_finalize@plt+0x4fd0>
    2a59:	e8 d2 f6 ff ff       	call   2130 <getopt_long@plt>
    2a5e:	83 f8 ff             	cmp    $0xffffffff,%eax
    2a61:	74 a9                	je     2a0c <__cxa_finalize@plt+0x70c>
    2a63:	83 f8 68             	cmp    $0x68,%eax
    2a66:	74 50                	je     2ab8 <__cxa_finalize@plt+0x7b8>
    2a68:	83 f8 76             	cmp    $0x76,%eax
    2a6b:	75 9f                	jne    2a0c <__cxa_finalize@plt+0x70c>
    2a6d:	48 8b 3d 94 77 00 00 	mov    0x7794(%rip),%rdi        # a208 <stdout@GLIBC_2.2.5>
    2a74:	49 89 e0             	mov    %rsp,%r8
    2a77:	48 89 e9             	mov    %rbp,%rcx
    2a7a:	4c 89 e2             	mov    %r12,%rdx
    2a7d:	48 8d 84 24 00 01 00 	lea    0x100(%rsp),%rax
    2a84:	00 
    2a85:	4c 89 ee             	mov    %r13,%rsi
    2a88:	c7 04 24 30 00 00 00 	movl   $0x30,(%rsp)
    2a8f:	48 89 44 24 08       	mov    %rax,0x8(%rsp)
    2a94:	48 8d 44 24 20       	lea    0x20(%rsp),%rax
    2a99:	c7 44 24 04 30 00 00 	movl   $0x30,0x4(%rsp)
    2aa0:	00 
    2aa1:	48 89 44 24 10       	mov    %rax,0x10(%rsp)
    2aa6:	e8 95 2a 00 00       	call   5540 <__cxa_finalize@plt+0x3240>
    2aab:	31 ff                	xor    %edi,%edi
    2aad:	e8 ee f7 ff ff       	call   22a0 <exit@plt>
    2ab2:	66 0f 1f 44 00 00    	nopw   0x0(%rax,%rax,1)
    2ab8:	31 ff                	xor    %edi,%edi
    2aba:	ff d3                	call   *%rbx
    2abc:	e9 4b ff ff ff       	jmp    2a0c <__cxa_finalize@plt+0x70c>
    2ac1:	e8 5a f6 ff ff       	call   2120 <__stack_chk_fail@plt>
    2ac6:	66 2e 0f 1f 84 00 00 	cs nopw 0x0(%rax,%rax,1)
    2acd:	00 00 00 
    2ad0:	41 56                	push   %r14
    2ad2:	41 55                	push   %r13
    2ad4:	41 54                	push   %r12
    2ad6:	4d 89 c4             	mov    %r8,%r12
    2ad9:	55                   	push   %rbp
    2ada:	48 89 cd             	mov    %rcx,%rbp
    2add:	53                   	push   %rbx
    2ade:	48 89 d3             	mov    %rdx,%rbx
    2ae1:	48 81 ec d0 00 00 00 	sub    $0xd0,%rsp
    2ae8:	4c 8b b4 24 00 01 00 	mov    0x100(%rsp),%r14
    2aef:	00 
    2af0:	84 c0                	test   %al,%al
    2af2:	74 37                	je     2b2b <__cxa_finalize@plt+0x82b>
    2af4:	0f 29 44 24 50       	movaps %xmm0,0x50(%rsp)
    2af9:	0f 29 4c 24 60       	movaps %xmm1,0x60(%rsp)
    2afe:	0f 29 54 24 70       	movaps %xmm2,0x70(%rsp)
    2b03:	0f 29 9c 24 80 00 00 	movaps %xmm3,0x80(%rsp)
    2b0a:	00 
    2b0b:	0f 29 a4 24 90 00 00 	movaps %xmm4,0x90(%rsp)
    2b12:	00 
    2b13:	0f 29 ac 24 a0 00 00 	movaps %xmm5,0xa0(%rsp)
    2b1a:	00 
    2b1b:	0f 29 b4 24 b0 00 00 	movaps %xmm6,0xb0(%rsp)
    2b22:	00 
    2b23:	0f 29 bc 24 c0 00 00 	movaps %xmm7,0xc0(%rsp)
    2b2a:	00 
    2b2b:	64 48 8b 04 25 28 00 	mov    %fs:0x28,%rax
    2b32:	00 00 
    2b34:	48 89 44 24 18       	mov    %rax,0x18(%rsp)
    2b39:	31 c0                	xor    %eax,%eax
    2b3b:	48 8d 15 8e 47 00 00 	lea    0x478e(%rip),%rdx        # 72d0 <__cxa_finalize@plt+0x4fd0>
    2b42:	45 84 c9             	test   %r9b,%r9b
    2b45:	48 8d 05 e6 44 00 00 	lea    0x44e6(%rip),%rax        # 7032 <__cxa_finalize@plt+0x4d32>
    2b4c:	48 0f 45 d0          	cmovne %rax,%rdx
    2b50:	48 8d 0d c9 71 00 00 	lea    0x71c9(%rip),%rcx        # 9d20 <__cxa_finalize@plt+0x7a20>
    2b57:	45 31 c0             	xor    %r8d,%r8d
    2b5a:	44 8b 2d bf 76 00 00 	mov    0x76bf(%rip),%r13d        # a220 <opterr@GLIBC_2.2.5>
    2b61:	c7 05 b5 76 00 00 01 	movl   $0x1,0x76b5(%rip)        # a220 <opterr@GLIBC_2.2.5>
    2b68:	00 00 00 
    2b6b:	e8 c0 f5 ff ff       	call   2130 <getopt_long@plt>
    2b70:	83 f8 ff             	cmp    $0xffffffff,%eax
    2b73:	74 13                	je     2b88 <__cxa_finalize@plt+0x888>
    2b75:	83 f8 68             	cmp    $0x68,%eax
    2b78:	74 7e                	je     2bf8 <__cxa_finalize@plt+0x8f8>
    2b7a:	83 f8 76             	cmp    $0x76,%eax
    2b7d:	74 31                	je     2bb0 <__cxa_finalize@plt+0x8b0>
    2b7f:	8b 3d 13 76 00 00    	mov    0x7613(%rip),%edi        # a198 <__cxa_finalize@plt+0x7e98>
    2b85:	41 ff d6             	call   *%r14
    2b88:	44 89 2d 91 76 00 00 	mov    %r13d,0x7691(%rip)        # a220 <opterr@GLIBC_2.2.5>
    2b8f:	48 8b 44 24 18       	mov    0x18(%rsp),%rax
    2b94:	64 48 2b 04 25 28 00 	sub    %fs:0x28,%rax
    2b9b:	00 00 
    2b9d:	75 60                	jne    2bff <__cxa_finalize@plt+0x8ff>
    2b9f:	48 81 c4 d0 00 00 00 	add    $0xd0,%rsp
    2ba6:	5b                   	pop    %rbx
    2ba7:	5d                   	pop    %rbp
    2ba8:	41 5c                	pop    %r12
    2baa:	41 5d                	pop    %r13
    2bac:	41 5e                	pop    %r14
    2bae:	c3                   	ret
    2baf:	90                   	nop
    2bb0:	48 8b 3d 51 76 00 00 	mov    0x7651(%rip),%rdi        # a208 <stdout@GLIBC_2.2.5>
    2bb7:	49 89 e0             	mov    %rsp,%r8
    2bba:	4c 89 e1             	mov    %r12,%rcx
    2bbd:	48 89 ea             	mov    %rbp,%rdx
    2bc0:	48 8d 84 24 08 01 00 	lea    0x108(%rsp),%rax
    2bc7:	00 
    2bc8:	48 89 de             	mov    %rbx,%rsi
    2bcb:	c7 04 24 30 00 00 00 	movl   $0x30,(%rsp)
    2bd2:	48 89 44 24 08       	mov    %rax,0x8(%rsp)
    2bd7:	48 8d 44 24 20       	lea    0x20(%rsp),%rax
    2bdc:	c7 44 24 04 30 00 00 	movl   $0x30,0x4(%rsp)
    2be3:	00 
    2be4:	48 89 44 24 10       	mov    %rax,0x10(%rsp)
    2be9:	e8 52 29 00 00       	call   5540 <__cxa_finalize@plt+0x3240>
    2bee:	31 ff                	xor    %edi,%edi
    2bf0:	e8 ab f6 ff ff       	call   22a0 <exit@plt>
    2bf5:	0f 1f 00             	nopl   (%rax)
    2bf8:	31 ff                	xor    %edi,%edi
    2bfa:	41 ff d6             	call   *%r14
    2bfd:	eb 89                	jmp    2b88 <__cxa_finalize@plt+0x888>
    2bff:	e8 1c f5 ff ff       	call   2120 <__stack_chk_fail@plt>
    2c04:	66 2e 0f 1f 84 00 00 	cs nopw 0x0(%rax,%rax,1)
    2c0b:	00 00 00 
    2c0e:	66 90                	xchg   %ax,%ax
    2c10:	41 54                	push   %r12
    2c12:	55                   	push   %rbp
    2c13:	53                   	push   %rbx
    2c14:	48 85 ff             	test   %rdi,%rdi
    2c17:	74 7c                	je     2c95 <__cxa_finalize@plt+0x995>
    2c19:	be 2f 00 00 00       	mov    $0x2f,%esi
    2c1e:	48 89 fb             	mov    %rdi,%rbx
    2c21:	e8 2a f5 ff ff       	call   2150 <strrchr@plt>
    2c26:	48 89 c5             	mov    %rax,%rbp
    2c29:	48 85 c0             	test   %rax,%rax
    2c2c:	74 4a                	je     2c78 <__cxa_finalize@plt+0x978>
    2c2e:	4c 8d 60 01          	lea    0x1(%rax),%r12
    2c32:	4c 89 e0             	mov    %r12,%rax
    2c35:	48 29 d8             	sub    %rbx,%rax
    2c38:	48 83 f8 06          	cmp    $0x6,%rax
    2c3c:	7e 3a                	jle    2c78 <__cxa_finalize@plt+0x978>
    2c3e:	48 8d 7d fa          	lea    -0x6(%rbp),%rdi
    2c42:	ba 07 00 00 00       	mov    $0x7,%edx
    2c47:	48 8d 35 ca 46 00 00 	lea    0x46ca(%rip),%rsi        # 7318 <__cxa_finalize@plt+0x5018>
    2c4e:	e8 0d f4 ff ff       	call   2060 <strncmp@plt>
    2c53:	85 c0                	test   %eax,%eax
    2c55:	75 21                	jne    2c78 <__cxa_finalize@plt+0x978>
    2c57:	80 7d 01 6c          	cmpb   $0x6c,0x1(%rbp)
    2c5b:	75 33                	jne    2c90 <__cxa_finalize@plt+0x990>
    2c5d:	41 80 7c 24 01 74    	cmpb   $0x74,0x1(%r12)
    2c63:	75 2b                	jne    2c90 <__cxa_finalize@plt+0x990>
    2c65:	41 80 7c 24 02 2d    	cmpb   $0x2d,0x2(%r12)
    2c6b:	75 23                	jne    2c90 <__cxa_finalize@plt+0x990>
    2c6d:	48 8d 5d 04          	lea    0x4(%rbp),%rbx
    2c71:	48 89 1d 88 75 00 00 	mov    %rbx,0x7588(%rip)        # a200 <__progname@GLIBC_2.2.5>
    2c78:	48 89 1d e1 75 00 00 	mov    %rbx,0x75e1(%rip)        # a260 <stderr@GLIBC_2.2.5+0x20>
    2c7f:	48 89 1d 92 75 00 00 	mov    %rbx,0x7592(%rip)        # a218 <__progname_full@GLIBC_2.2.5>
    2c86:	5b                   	pop    %rbx
    2c87:	5d                   	pop    %rbp
    2c88:	41 5c                	pop    %r12
    2c8a:	c3                   	ret
    2c8b:	0f 1f 44 00 00       	nopl   0x0(%rax,%rax,1)
    2c90:	4c 89 e3             	mov    %r12,%rbx
    2c93:	eb e3                	jmp    2c78 <__cxa_finalize@plt+0x978>
    2c95:	48 8b 0d a4 75 00 00 	mov    0x75a4(%rip),%rcx        # a240 <stderr@GLIBC_2.2.5>
    2c9c:	ba 37 00 00 00       	mov    $0x37,%edx
    2ca1:	be 01 00 00 00       	mov    $0x1,%esi
    2ca6:	48 8d 3d 33 46 00 00 	lea    0x4633(%rip),%rdi        # 72e0 <__cxa_finalize@plt+0x4fe0>
    2cad:	e8 fe f5 ff ff       	call   22b0 <fwrite@plt>
    2cb2:	e8 89 f3 ff ff       	call   2040 <abort@plt>
    2cb7:	66 0f 1f 84 00 00 00 	nopw   0x0(%rax,%rax,1)
    2cbe:	00 00 
    2cc0:	55                   	push   %rbp
    2cc1:	48 89 fd             	mov    %rdi,%rbp
    2cc4:	53                   	push   %rbx
    2cc5:	89 f3                	mov    %esi,%ebx
    2cc7:	48 83 ec 08          	sub    $0x8,%rsp
    2ccb:	e8 d0 31 00 00       	call   5ea0 <__cxa_finalize@plt+0x3ba0>
    2cd0:	0f b6 10             	movzbl (%rax),%edx
    2cd3:	83 e2 df             	and    $0xffffffdf,%edx
    2cd6:	80 fa 55             	cmp    $0x55,%dl
    2cd9:	75 55                	jne    2d30 <__cxa_finalize@plt+0xa30>
    2cdb:	0f b6 50 01          	movzbl 0x1(%rax),%edx
    2cdf:	83 e2 df             	and    $0xffffffdf,%edx
    2ce2:	80 fa 54             	cmp    $0x54,%dl
    2ce5:	0f 85 9d 00 00 00    	jne    2d88 <__cxa_finalize@plt+0xa88>
    2ceb:	0f b6 50 02          	movzbl 0x2(%rax),%edx
    2cef:	83 e2 df             	and    $0xffffffdf,%edx
    2cf2:	80 fa 46             	cmp    $0x46,%dl
    2cf5:	0f 85 8d 00 00 00    	jne    2d88 <__cxa_finalize@plt+0xa88>
    2cfb:	80 78 03 2d          	cmpb   $0x2d,0x3(%rax)
    2cff:	0f 85 83 00 00 00    	jne    2d88 <__cxa_finalize@plt+0xa88>
    2d05:	80 78 04 38          	cmpb   $0x38,0x4(%rax)
    2d09:	75 7d                	jne    2d88 <__cxa_finalize@plt+0xa88>
    2d0b:	80 78 05 00          	cmpb   $0x0,0x5(%rax)
    2d0f:	75 77                	jne    2d88 <__cxa_finalize@plt+0xa88>
    2d11:	80 7d 00 60          	cmpb   $0x60,0x0(%rbp)
    2d15:	48 8d 05 04 46 00 00 	lea    0x4604(%rip),%rax        # 7320 <__cxa_finalize@plt+0x5020>
    2d1c:	48 8d 15 0c 46 00 00 	lea    0x460c(%rip),%rdx        # 732f <__cxa_finalize@plt+0x502f>
    2d23:	48 0f 44 c2          	cmove  %rdx,%rax
    2d27:	48 83 c4 08          	add    $0x8,%rsp
    2d2b:	5b                   	pop    %rbx
    2d2c:	5d                   	pop    %rbp
    2d2d:	c3                   	ret
    2d2e:	66 90                	xchg   %ax,%ax
    2d30:	80 fa 47             	cmp    $0x47,%dl
    2d33:	75 53                	jne    2d88 <__cxa_finalize@plt+0xa88>
    2d35:	0f b6 50 01          	movzbl 0x1(%rax),%edx
    2d39:	83 e2 df             	and    $0xffffffdf,%edx
    2d3c:	80 fa 42             	cmp    $0x42,%dl
    2d3f:	75 47                	jne    2d88 <__cxa_finalize@plt+0xa88>
    2d41:	80 78 02 31          	cmpb   $0x31,0x2(%rax)
    2d45:	75 41                	jne    2d88 <__cxa_finalize@plt+0xa88>
    2d47:	80 78 03 38          	cmpb   $0x38,0x3(%rax)
    2d4b:	75 3b                	jne    2d88 <__cxa_finalize@plt+0xa88>
    2d4d:	80 78 04 30          	cmpb   $0x30,0x4(%rax)
    2d51:	75 35                	jne    2d88 <__cxa_finalize@plt+0xa88>
    2d53:	80 78 05 33          	cmpb   $0x33,0x5(%rax)
    2d57:	75 2f                	jne    2d88 <__cxa_finalize@plt+0xa88>
    2d59:	80 78 06 30          	cmpb   $0x30,0x6(%rax)
    2d5d:	75 29                	jne    2d88 <__cxa_finalize@plt+0xa88>
    2d5f:	80 78 07 00          	cmpb   $0x0,0x7(%rax)
    2d63:	75 23                	jne    2d88 <__cxa_finalize@plt+0xa88>
    2d65:	80 7d 00 60          	cmpb   $0x60,0x0(%rbp)
    2d69:	48 8d 05 b4 45 00 00 	lea    0x45b4(%rip),%rax        # 7324 <__cxa_finalize@plt+0x5024>
    2d70:	48 8d 15 b4 45 00 00 	lea    0x45b4(%rip),%rdx        # 732b <__cxa_finalize@plt+0x502b>
    2d77:	48 0f 44 c2          	cmove  %rdx,%rax
    2d7b:	48 83 c4 08          	add    $0x8,%rsp
    2d7f:	5b                   	pop    %rbx
    2d80:	5d                   	pop    %rbp
    2d81:	c3                   	ret
    2d82:	66 0f 1f 44 00 00    	nopw   0x0(%rax,%rax,1)
    2d88:	83 fb 09             	cmp    $0x9,%ebx
    2d8b:	48 8d 05 97 45 00 00 	lea    0x4597(%rip),%rax        # 7329 <__cxa_finalize@plt+0x5029>
    2d92:	48 8d 15 8e 45 00 00 	lea    0x458e(%rip),%rdx        # 7327 <__cxa_finalize@plt+0x5027>
    2d99:	48 0f 44 c2          	cmove  %rdx,%rax
    2d9d:	48 83 c4 08          	add    $0x8,%rsp
    2da1:	5b                   	pop    %rbx
    2da2:	5d                   	pop    %rbp
    2da3:	c3                   	ret
    2da4:	66 66 2e 0f 1f 84 00 	data16 cs nopw 0x0(%rax,%rax,1)
    2dab:	00 00 00 00 
    2daf:	90                   	nop
    2db0:	41 57                	push   %r15
    2db2:	49 89 cb             	mov    %rcx,%r11
    2db5:	45 89 c2             	mov    %r8d,%r10d
    2db8:	41 56                	push   %r14
    2dba:	41 55                	push   %r13
    2dbc:	41 54                	push   %r12
    2dbe:	49 89 fc             	mov    %rdi,%r12
    2dc1:	55                   	push   %rbp
    2dc2:	53                   	push   %rbx
    2dc3:	48 81 ec b8 00 00 00 	sub    $0xb8,%rsp
    2dca:	48 8b 84 24 f0 00 00 	mov    0xf0(%rsp),%rax
    2dd1:	00 
    2dd2:	44 89 4c 24 70       	mov    %r9d,0x70(%rsp)
    2dd7:	49 89 f1             	mov    %rsi,%r9
    2dda:	48 89 54 24 08       	mov    %rdx,0x8(%rsp)
    2ddf:	4c 8b ac 24 f8 00 00 	mov    0xf8(%rsp),%r13
    2de6:	00 
    2de7:	48 89 44 24 20       	mov    %rax,0x20(%rsp)
    2dec:	48 8b 84 24 00 01 00 	mov    0x100(%rsp),%rax
    2df3:	00 
    2df4:	48 89 84 24 80 00 00 	mov    %rax,0x80(%rsp)
    2dfb:	00 
    2dfc:	64 48 8b 04 25 28 00 	mov    %fs:0x28,%rax
    2e03:	00 00 
    2e05:	48 89 84 24 a8 00 00 	mov    %rax,0xa8(%rsp)
    2e0c:	00 
    2e0d:	31 c0                	xor    %eax,%eax
    2e0f:	4c 89 ac 24 88 00 00 	mov    %r13,0x88(%rsp)
    2e16:	00 
    2e17:	66 0f 1f 84 00 00 00 	nopw   0x0(%rax,%rax,1)
    2e1e:	00 00 
    2e20:	44 89 54 24 18       	mov    %r10d,0x18(%rsp)
    2e25:	4c 89 5c 24 10       	mov    %r11,0x10(%rsp)
    2e2a:	4c 89 0c 24          	mov    %r9,(%rsp)
    2e2e:	e8 cd f2 ff ff       	call   2100 <__ctype_get_mb_cur_max@plt>
    2e33:	8b 6c 24 70          	mov    0x70(%rsp),%ebp
    2e37:	44 8b 54 24 18       	mov    0x18(%rsp),%r10d
    2e3c:	48 89 44 24 68       	mov    %rax,0x68(%rsp)
    2e41:	83 e5 02             	and    $0x2,%ebp
    2e44:	0f 95 44 24 5e       	setne  0x5e(%rsp)
    2e49:	41 83 fa 0a          	cmp    $0xa,%r10d
    2e4d:	0f 87 bd f4 ff ff    	ja     2310 <__cxa_finalize@plt+0x10>
    2e53:	48 8d 3d 46 45 00 00 	lea    0x4546(%rip),%rdi        # 73a0 <__cxa_finalize@plt+0x50a0>
    2e5a:	44 89 d0             	mov    %r10d,%eax
    2e5d:	4c 8b 0c 24          	mov    (%rsp),%r9
    2e61:	4c 8b 5c 24 10       	mov    0x10(%rsp),%r11
    2e66:	48 63 04 87          	movslq (%rdi,%rax,4),%rax
    2e6a:	48 01 f8             	add    %rdi,%rax
    2e6d:	ff e0                	jmp    *%rax
    2e6f:	90                   	nop
    2e70:	41 83 fa 0a          	cmp    $0xa,%r10d
    2e74:	0f 84 86 00 00 00    	je     2f00 <__cxa_finalize@plt+0xc00>
    2e7a:	48 8d 1d b2 44 00 00 	lea    0x44b2(%rip),%rbx        # 7333 <__cxa_finalize@plt+0x5033>
    2e81:	31 ff                	xor    %edi,%edi
    2e83:	ba 05 00 00 00       	mov    $0x5,%edx
    2e88:	4c 89 0c 24          	mov    %r9,(%rsp)
    2e8c:	48 89 de             	mov    %rbx,%rsi
    2e8f:	44 89 54 24 18       	mov    %r10d,0x18(%rsp)
    2e94:	4c 89 5c 24 10       	mov    %r11,0x10(%rsp)
    2e99:	e8 52 f2 ff ff       	call   20f0 <dcgettext@plt>
    2e9e:	4c 8b 0c 24          	mov    (%rsp),%r9
    2ea2:	4c 8b 5c 24 10       	mov    0x10(%rsp),%r11
    2ea7:	48 39 d8             	cmp    %rbx,%rax
    2eaa:	48 89 84 24 88 00 00 	mov    %rax,0x88(%rsp)
    2eb1:	00 
    2eb2:	44 8b 54 24 18       	mov    0x18(%rsp),%r10d
    2eb7:	0f 84 e3 12 00 00    	je     41a0 <__cxa_finalize@plt+0x1ea0>
    2ebd:	48 8d 1d 65 44 00 00 	lea    0x4465(%rip),%rbx        # 7329 <__cxa_finalize@plt+0x5029>
    2ec4:	31 ff                	xor    %edi,%edi
    2ec6:	ba 05 00 00 00       	mov    $0x5,%edx
    2ecb:	4c 89 0c 24          	mov    %r9,(%rsp)
    2ecf:	48 89 de             	mov    %rbx,%rsi
    2ed2:	44 89 54 24 18       	mov    %r10d,0x18(%rsp)
    2ed7:	4c 89 5c 24 10       	mov    %r11,0x10(%rsp)
    2edc:	e8 0f f2 ff ff       	call   20f0 <dcgettext@plt>
    2ee1:	4c 8b 0c 24          	mov    (%rsp),%r9
    2ee5:	4c 8b 5c 24 10       	mov    0x10(%rsp),%r11
    2eea:	48 39 d8             	cmp    %rbx,%rax
    2eed:	48 89 84 24 80 00 00 	mov    %rax,0x80(%rsp)
    2ef4:	00 
    2ef5:	44 8b 54 24 18       	mov    0x18(%rsp),%r10d
    2efa:	0f 84 6c 12 00 00    	je     416c <__cxa_finalize@plt+0x1e6c>
    2f00:	31 db                	xor    %ebx,%ebx
    2f02:	85 ed                	test   %ebp,%ebp
    2f04:	0f 84 18 11 00 00    	je     4022 <__cxa_finalize@plt+0x1d22>
    2f0a:	4c 8b b4 24 80 00 00 	mov    0x80(%rsp),%r14
    2f11:	00 
    2f12:	44 89 54 24 38       	mov    %r10d,0x38(%rsp)
    2f17:	45 31 ed             	xor    %r13d,%r13d
    2f1a:	4c 89 5c 24 30       	mov    %r11,0x30(%rsp)
    2f1f:	4c 89 f7             	mov    %r14,%rdi
    2f22:	4c 89 4c 24 28       	mov    %r9,0x28(%rsp)
    2f27:	e8 e4 f1 ff ff       	call   2110 <strlen@plt>
    2f2c:	4c 89 74 24 50       	mov    %r14,0x50(%rsp)
    2f31:	4c 8b 4c 24 28       	mov    0x28(%rsp),%r9
    2f36:	48 89 44 24 18       	mov    %rax,0x18(%rsp)
    2f3b:	4c 8b 5c 24 30       	mov    0x30(%rsp),%r11
    2f40:	c6 04 24 01          	movb   $0x1,(%rsp)
    2f44:	44 8b 54 24 38       	mov    0x38(%rsp),%r10d
    2f49:	c6 44 24 5f 00       	movb   $0x0,0x5f(%rsp)
    2f4e:	48 c7 44 24 60 00 00 	movq   $0x0,0x60(%rsp)
    2f55:	00 00 
    2f57:	c6 44 24 10 01       	movb   $0x1,0x10(%rsp)
    2f5c:	0f 1f 40 00          	nopl   0x0(%rax)
    2f60:	31 ed                	xor    %ebp,%ebp
    2f62:	66 0f 1f 44 00 00    	nopw   0x0(%rax,%rax,1)
    2f68:	49 39 eb             	cmp    %rbp,%r11
    2f6b:	41 0f 95 c7          	setne  %r15b
    2f6f:	49 83 fb ff          	cmp    $0xffffffffffffffff,%r11
    2f73:	75 0d                	jne    2f82 <__cxa_finalize@plt+0xc82>
    2f75:	48 8b 44 24 08       	mov    0x8(%rsp),%rax
    2f7a:	80 3c 28 00          	cmpb   $0x0,(%rax,%rbp,1)
    2f7e:	41 0f 95 c7          	setne  %r15b
    2f82:	45 84 ff             	test   %r15b,%r15b
    2f85:	0f 84 fe 0d 00 00    	je     3d89 <__cxa_finalize@plt+0x1a89>
    2f8b:	41 83 fa 02          	cmp    $0x2,%r10d
    2f8f:	48 8b 74 24 08       	mov    0x8(%rsp),%rsi
    2f94:	0f 95 c0             	setne  %al
    2f97:	22 44 24 10          	and    0x10(%rsp),%al
    2f9b:	48 83 7c 24 18 00    	cmpq   $0x0,0x18(%rsp)
    2fa1:	41 89 c0             	mov    %eax,%r8d
    2fa4:	0f 95 c0             	setne  %al
    2fa7:	48 8d 0c 2e          	lea    (%rsi,%rbp,1),%rcx
    2fab:	44 20 c0             	and    %r8b,%al
    2fae:	41 89 c6             	mov    %eax,%r14d
    2fb1:	0f 85 91 08 00 00    	jne    3848 <__cxa_finalize@plt+0x1548>
    2fb7:	0f b6 11             	movzbl (%rcx),%edx
    2fba:	80 fa 3f             	cmp    $0x3f,%dl
    2fbd:	7f 29                	jg     2fe8 <__cxa_finalize@plt+0xce8>
    2fbf:	84 d2                	test   %dl,%dl
    2fc1:	0f 88 14 01 00 00    	js     30db <__cxa_finalize@plt+0xddb>
    2fc7:	80 fa 3f             	cmp    $0x3f,%dl
    2fca:	0f 87 0b 01 00 00    	ja     30db <__cxa_finalize@plt+0xddb>
    2fd0:	48 8d 35 f5 43 00 00 	lea    0x43f5(%rip),%rsi        # 73cc <__cxa_finalize@plt+0x50cc>
    2fd7:	0f b6 c2             	movzbl %dl,%eax
    2fda:	48 63 04 86          	movslq (%rsi,%rax,4),%rax
    2fde:	48 01 f0             	add    %rsi,%rax
    2fe1:	ff e0                	jmp    *%rax
    2fe3:	0f 1f 44 00 00       	nopl   0x0(%rax,%rax,1)
    2fe8:	80 fa 7a             	cmp    $0x7a,%dl
    2feb:	0f 8f af 05 00 00    	jg     35a0 <__cxa_finalize@plt+0x12a0>
    2ff1:	80 fa 40             	cmp    $0x40,%dl
    2ff4:	0f 84 e1 00 00 00    	je     30db <__cxa_finalize@plt+0xddb>
    2ffa:	8d 4a bf             	lea    -0x41(%rdx),%ecx
    2ffd:	b8 01 00 00 00       	mov    $0x1,%eax
    3002:	48 bf ff ff ff 53 ff 	movabs $0x3ffffff53ffffff,%rdi
    3009:	ff ff 03 
    300c:	48 d3 e0             	shl    %cl,%rax
    300f:	48 85 f8             	test   %rdi,%rax
    3012:	0f 84 48 01 00 00    	je     3160 <__cxa_finalize@plt+0xe60>
    3018:	41 83 fa 02          	cmp    $0x2,%r10d
    301c:	0f 94 c0             	sete   %al
    301f:	31 ff                	xor    %edi,%edi
    3021:	45 84 c0             	test   %r8b,%r8b
    3024:	75 07                	jne    302d <__cxa_finalize@plt+0xd2d>
    3026:	80 7c 24 5e 00       	cmpb   $0x0,0x5e(%rsp)
    302b:	74 1e                	je     304b <__cxa_finalize@plt+0xd4b>
    302d:	48 8b 74 24 20       	mov    0x20(%rsp),%rsi
    3032:	48 85 f6             	test   %rsi,%rsi
    3035:	74 14                	je     304b <__cxa_finalize@plt+0xd4b>
    3037:	89 d1                	mov    %edx,%ecx
    3039:	c0 e9 05             	shr    $0x5,%cl
    303c:	0f b6 c9             	movzbl %cl,%ecx
    303f:	8b 34 8e             	mov    (%rsi,%rcx,4),%esi
    3042:	89 d1                	mov    %edx,%ecx
    3044:	d3 ee                	shr    %cl,%esi
    3046:	83 e6 01             	and    $0x1,%esi
    3049:	75 10                	jne    305b <__cxa_finalize@plt+0xd5b>
    304b:	41 83 fa 02          	cmp    $0x2,%r10d
    304f:	0f 94 c0             	sete   %al
    3052:	45 84 f6             	test   %r14b,%r14b
    3055:	0f 84 65 0a 00 00    	je     3ac0 <__cxa_finalize@plt+0x17c0>
    305b:	80 7c 24 5e 00       	cmpb   $0x0,0x5e(%rsp)
    3060:	0f 85 aa 01 00 00    	jne    3210 <__cxa_finalize@plt+0xf10>
    3066:	44 89 e9             	mov    %r13d,%ecx
    3069:	83 f1 01             	xor    $0x1,%ecx
    306c:	20 c1                	and    %al,%cl
    306e:	74 2f                	je     309f <__cxa_finalize@plt+0xd9f>
    3070:	4c 39 cb             	cmp    %r9,%rbx
    3073:	73 05                	jae    307a <__cxa_finalize@plt+0xd7a>
    3075:	41 c6 04 1c 27       	movb   $0x27,(%r12,%rbx,1)
    307a:	48 8d 43 01          	lea    0x1(%rbx),%rax
    307e:	4c 39 c8             	cmp    %r9,%rax
    3081:	73 06                	jae    3089 <__cxa_finalize@plt+0xd89>
    3083:	41 c6 44 1c 01 24    	movb   $0x24,0x1(%r12,%rbx,1)
    3089:	48 8d 43 02          	lea    0x2(%rbx),%rax
    308d:	4c 39 c8             	cmp    %r9,%rax
    3090:	73 06                	jae    3098 <__cxa_finalize@plt+0xd98>
    3092:	41 c6 44 1c 02 27    	movb   $0x27,0x2(%r12,%rbx,1)
    3098:	48 83 c3 03          	add    $0x3,%rbx
    309c:	41 89 cd             	mov    %ecx,%r13d
    309f:	4c 39 cb             	cmp    %r9,%rbx
    30a2:	73 05                	jae    30a9 <__cxa_finalize@plt+0xda9>
    30a4:	41 c6 04 1c 5c       	movb   $0x5c,(%r12,%rbx,1)
    30a9:	48 83 c3 01          	add    $0x1,%rbx
    30ad:	48 83 c5 01          	add    $0x1,%rbp
    30b1:	4c 39 cb             	cmp    %r9,%rbx
    30b4:	73 04                	jae    30ba <__cxa_finalize@plt+0xdba>
    30b6:	41 88 14 1c          	mov    %dl,(%r12,%rbx,1)
    30ba:	0f b6 04 24          	movzbl (%rsp),%eax
    30be:	48 83 c3 01          	add    $0x1,%rbx
    30c2:	bf 00 00 00 00       	mov    $0x0,%edi
    30c7:	45 84 ff             	test   %r15b,%r15b
    30ca:	0f 44 c7             	cmove  %edi,%eax
    30cd:	88 04 24             	mov    %al,(%rsp)
    30d0:	e9 93 fe ff ff       	jmp    2f68 <__cxa_finalize@plt+0xc68>
    30d5:	0f 1f 00             	nopl   (%rax)
    30d8:	45 31 f6             	xor    %r14d,%r14d
    30db:	48 83 7c 24 68 01    	cmpq   $0x1,0x68(%rsp)
    30e1:	0f 85 e2 04 00 00    	jne    35c9 <__cxa_finalize@plt+0x12c9>
    30e7:	66 0f 1f 84 00 00 00 	nopw   0x0(%rax,%rax,1)
    30ee:	00 00 
    30f0:	44 89 54 24 48       	mov    %r10d,0x48(%rsp)
    30f5:	4c 89 5c 24 40       	mov    %r11,0x40(%rsp)
    30fa:	4c 89 4c 24 38       	mov    %r9,0x38(%rsp)
    30ff:	88 54 24 30          	mov    %dl,0x30(%rsp)
    3103:	44 88 44 24 28       	mov    %r8b,0x28(%rsp)
    3108:	e8 e3 f1 ff ff       	call   22f0 <__ctype_b_loc@plt>
    310d:	44 0f b6 44 24 28    	movzbl 0x28(%rsp),%r8d
    3113:	4c 8b 4c 24 38       	mov    0x38(%rsp),%r9
    3118:	be 01 00 00 00       	mov    $0x1,%esi
    311d:	48 89 c1             	mov    %rax,%rcx
    3120:	0f b6 44 24 30       	movzbl 0x30(%rsp),%eax
    3125:	4c 8b 5c 24 40       	mov    0x40(%rsp),%r11
    312a:	48 8b 09             	mov    (%rcx),%rcx
    312d:	44 8b 54 24 48       	mov    0x48(%rsp),%r10d
    3132:	48 89 c2             	mov    %rax,%rdx
    3135:	f6 44 41 01 40       	testb  $0x40,0x1(%rcx,%rax,2)
    313a:	41 0f 95 c7          	setne  %r15b
    313e:	40 0f 94 c7          	sete   %dil
    3142:	40 22 7c 24 10       	and    0x10(%rsp),%dil
    3147:	40 84 ff             	test   %dil,%dil
    314a:	0f 85 26 0e 00 00    	jne    3f76 <__cxa_finalize@plt+0x1c76>
    3150:	41 83 fa 02          	cmp    $0x2,%r10d
    3154:	0f 94 c0             	sete   %al
    3157:	e9 c5 fe ff ff       	jmp    3021 <__cxa_finalize@plt+0xd21>
    315c:	0f 1f 40 00          	nopl   0x0(%rax)
    3160:	a9 00 00 00 a4       	test   $0xa4000000,%eax
    3165:	0f 84 bd 03 00 00    	je     3528 <__cxa_finalize@plt+0x1228>
    316b:	45 31 ff             	xor    %r15d,%r15d
    316e:	41 83 fa 02          	cmp    $0x2,%r10d
    3172:	0f b6 7c 24 5e       	movzbl 0x5e(%rsp),%edi
    3177:	0f 94 c0             	sete   %al
    317a:	40 20 c7             	and    %al,%dil
    317d:	0f 84 9e fe ff ff    	je     3021 <__cxa_finalize@plt+0xd21>
    3183:	41 ba 02 00 00 00    	mov    $0x2,%r10d
    3189:	80 7c 24 10 00       	cmpb   $0x0,0x10(%rsp)
    318e:	b8 04 00 00 00       	mov    $0x4,%eax
    3193:	44 0f 45 d0          	cmovne %eax,%r10d
    3197:	83 64 24 70 fd       	andl   $0xfffffffd,0x70(%rsp)
    319c:	48 c7 44 24 20 00 00 	movq   $0x0,0x20(%rsp)
    31a3:	00 00 
    31a5:	e9 76 fc ff ff       	jmp    2e20 <__cxa_finalize@plt+0xb20>
    31aa:	66 0f 1f 44 00 00    	nopw   0x0(%rax,%rax,1)
    31b0:	41 83 fa 02          	cmp    $0x2,%r10d
    31b4:	ba 0c 00 00 00       	mov    $0xc,%edx
    31b9:	b9 66 00 00 00       	mov    $0x66,%ecx
    31be:	0f 94 c0             	sete   %al
    31c1:	0f 1f 80 00 00 00 00 	nopl   0x0(%rax)
    31c8:	80 7c 24 10 00       	cmpb   $0x0,0x10(%rsp)
    31cd:	75 31                	jne    3200 <__cxa_finalize@plt+0xf00>
    31cf:	45 31 ff             	xor    %r15d,%r15d
    31d2:	31 ff                	xor    %edi,%edi
    31d4:	e9 48 fe ff ff       	jmp    3021 <__cxa_finalize@plt+0xd21>
    31d9:	0f 1f 80 00 00 00 00 	nopl   0x0(%rax)
    31e0:	41 83 fa 02          	cmp    $0x2,%r10d
    31e4:	ba 07 00 00 00       	mov    $0x7,%edx
    31e9:	b9 61 00 00 00       	mov    $0x61,%ecx
    31ee:	0f 94 c0             	sete   %al
    31f1:	80 7c 24 10 00       	cmpb   $0x0,0x10(%rsp)
    31f6:	74 d7                	je     31cf <__cxa_finalize@plt+0xecf>
    31f8:	0f 1f 84 00 00 00 00 	nopl   0x0(%rax,%rax,1)
    31ff:	00 
    3200:	45 31 ff             	xor    %r15d,%r15d
    3203:	80 7c 24 5e 00       	cmpb   $0x0,0x5e(%rsp)
    3208:	89 ca                	mov    %ecx,%edx
    320a:	0f 84 56 fe ff ff    	je     3066 <__cxa_finalize@plt+0xd66>
    3210:	20 44 24 10          	and    %al,0x10(%rsp)
    3214:	e9 70 ff ff ff       	jmp    3189 <__cxa_finalize@plt+0xe89>
    3219:	0f 1f 80 00 00 00 00 	nopl   0x0(%rax)
    3220:	41 83 fa 02          	cmp    $0x2,%r10d
    3224:	ba 0b 00 00 00       	mov    $0xb,%edx
    3229:	b9 76 00 00 00       	mov    $0x76,%ecx
    322e:	0f 94 c0             	sete   %al
    3231:	eb 95                	jmp    31c8 <__cxa_finalize@plt+0xec8>
    3233:	0f 1f 44 00 00       	nopl   0x0(%rax,%rax,1)
    3238:	ba 0a 00 00 00       	mov    $0xa,%edx
    323d:	b9 6e 00 00 00       	mov    $0x6e,%ecx
    3242:	41 83 fa 02          	cmp    $0x2,%r10d
    3246:	44 0f b6 74 24 5e    	movzbl 0x5e(%rsp),%r14d
    324c:	0f 94 c0             	sete   %al
    324f:	41 20 c6             	and    %al,%r14b
    3252:	0f 84 70 ff ff ff    	je     31c8 <__cxa_finalize@plt+0xec8>
    3258:	e9 26 ff ff ff       	jmp    3183 <__cxa_finalize@plt+0xe83>
    325d:	0f 1f 00             	nopl   (%rax)
    3260:	41 83 fa 02          	cmp    $0x2,%r10d
    3264:	0f 84 b6 0b 00 00    	je     3e20 <__cxa_finalize@plt+0x1b20>
    326a:	41 83 fa 05          	cmp    $0x5,%r10d
    326e:	75 20                	jne    3290 <__cxa_finalize@plt+0xf90>
    3270:	f6 44 24 70 04       	testb  $0x4,0x70(%rsp)
    3275:	74 19                	je     3290 <__cxa_finalize@plt+0xf90>
    3277:	48 8d 4d 02          	lea    0x2(%rbp),%rcx
    327b:	4c 39 d9             	cmp    %r11,%rcx
    327e:	73 10                	jae    3290 <__cxa_finalize@plt+0xf90>
    3280:	48 8b 44 24 08       	mov    0x8(%rsp),%rax
    3285:	80 7c 28 01 3f       	cmpb   $0x3f,0x1(%rax,%rbp,1)
    328a:	0f 84 09 0e 00 00    	je     4099 <__cxa_finalize@plt+0x1d99>
    3290:	31 c0                	xor    %eax,%eax
    3292:	45 31 ff             	xor    %r15d,%r15d
    3295:	31 ff                	xor    %edi,%edi
    3297:	ba 3f 00 00 00       	mov    $0x3f,%edx
    329c:	e9 80 fd ff ff       	jmp    3021 <__cxa_finalize@plt+0xd21>
    32a1:	0f 1f 80 00 00 00 00 	nopl   0x0(%rax)
    32a8:	41 83 fa 02          	cmp    $0x2,%r10d
    32ac:	0f 84 ce 07 00 00    	je     3a80 <__cxa_finalize@plt+0x1780>
    32b2:	44 88 7c 24 5f       	mov    %r15b,0x5f(%rsp)
    32b7:	31 c0                	xor    %eax,%eax
    32b9:	31 ff                	xor    %edi,%edi
    32bb:	ba 27 00 00 00       	mov    $0x27,%edx
    32c0:	e9 5c fd ff ff       	jmp    3021 <__cxa_finalize@plt+0xd21>
    32c5:	0f 1f 00             	nopl   (%rax)
    32c8:	41 83 fa 02          	cmp    $0x2,%r10d
    32cc:	ba 08 00 00 00       	mov    $0x8,%edx
    32d1:	b9 62 00 00 00       	mov    $0x62,%ecx
    32d6:	0f 94 c0             	sete   %al
    32d9:	e9 ea fe ff ff       	jmp    31c8 <__cxa_finalize@plt+0xec8>
    32de:	66 90                	xchg   %ax,%ax
    32e0:	80 7c 24 10 00       	cmpb   $0x0,0x10(%rsp)
    32e5:	0f 85 45 08 00 00    	jne    3b30 <__cxa_finalize@plt+0x1830>
    32eb:	f6 44 24 70 01       	testb  $0x1,0x70(%rsp)
    32f0:	0f 85 77 0c 00 00    	jne    3f6d <__cxa_finalize@plt+0x1c6d>
    32f6:	41 83 fa 02          	cmp    $0x2,%r10d
    32fa:	0f 94 c0             	sete   %al
    32fd:	45 31 f6             	xor    %r14d,%r14d
    3300:	45 31 ff             	xor    %r15d,%r15d
    3303:	31 ff                	xor    %edi,%edi
    3305:	31 d2                	xor    %edx,%edx
    3307:	e9 15 fd ff ff       	jmp    3021 <__cxa_finalize@plt+0xd21>
    330c:	0f 1f 40 00          	nopl   0x0(%rax)
    3310:	ba 23 00 00 00       	mov    $0x23,%edx
    3315:	44 89 f1             	mov    %r14d,%ecx
    3318:	48 85 ed             	test   %rbp,%rbp
    331b:	0f 84 4d fe ff ff    	je     316e <__cxa_finalize@plt+0xe6e>
    3321:	41 83 fa 02          	cmp    $0x2,%r10d
    3325:	41 89 ce             	mov    %ecx,%r14d
    3328:	0f 94 c0             	sete   %al
    332b:	e9 9f fe ff ff       	jmp    31cf <__cxa_finalize@plt+0xecf>
    3330:	ba 0d 00 00 00       	mov    $0xd,%edx
    3335:	b9 72 00 00 00       	mov    $0x72,%ecx
    333a:	e9 03 ff ff ff       	jmp    3242 <__cxa_finalize@plt+0xf42>
    333f:	90                   	nop
    3340:	ba 20 00 00 00       	mov    $0x20,%edx
    3345:	e9 24 fe ff ff       	jmp    316e <__cxa_finalize@plt+0xe6e>
    334a:	66 0f 1f 44 00 00    	nopw   0x0(%rax,%rax,1)
    3350:	ba 09 00 00 00       	mov    $0x9,%edx
    3355:	b9 74 00 00 00       	mov    $0x74,%ecx
    335a:	e9 e3 fe ff ff       	jmp    3242 <__cxa_finalize@plt+0xf42>
    335f:	c6 04 24 01          	movb   $0x1,(%rsp)
    3363:	45 31 ed             	xor    %r13d,%r13d
    3366:	31 db                	xor    %ebx,%ebx
    3368:	c6 44 24 5f 00       	movb   $0x0,0x5f(%rsp)
    336d:	48 c7 44 24 60 00 00 	movq   $0x0,0x60(%rsp)
    3374:	00 00 
    3376:	c6 44 24 5e 00       	movb   $0x0,0x5e(%rsp)
    337b:	c6 44 24 10 01       	movb   $0x1,0x10(%rsp)
    3380:	48 c7 44 24 18 00 00 	movq   $0x0,0x18(%rsp)
    3387:	00 00 
    3389:	48 c7 44 24 50 00 00 	movq   $0x0,0x50(%rsp)
    3390:	00 00 
    3392:	e9 c9 fb ff ff       	jmp    2f60 <__cxa_finalize@plt+0xc60>
    3397:	c6 04 24 01          	movb   $0x1,(%rsp)
    339b:	45 31 ed             	xor    %r13d,%r13d
    339e:	c6 44 24 5f 00       	movb   $0x0,0x5f(%rsp)
    33a3:	48 c7 44 24 60 00 00 	movq   $0x0,0x60(%rsp)
    33aa:	00 00 
    33ac:	85 ed                	test   %ebp,%ebp
    33ae:	0f 85 eb 0f 00 00    	jne    439f <__cxa_finalize@plt+0x209f>
    33b4:	c6 44 24 10 01       	movb   $0x1,0x10(%rsp)
    33b9:	c6 44 24 5e 00       	movb   $0x0,0x5e(%rsp)
    33be:	48 8d 05 64 3f 00 00 	lea    0x3f64(%rip),%rax        # 7329 <__cxa_finalize@plt+0x5029>
    33c5:	bb 01 00 00 00       	mov    $0x1,%ebx
    33ca:	41 ba 02 00 00 00    	mov    $0x2,%r10d
    33d0:	48 89 44 24 50       	mov    %rax,0x50(%rsp)
    33d5:	48 c7 44 24 18 01 00 	movq   $0x1,0x18(%rsp)
    33dc:	00 00 
    33de:	4d 85 c9             	test   %r9,%r9
    33e1:	0f 84 79 fb ff ff    	je     2f60 <__cxa_finalize@plt+0xc60>
    33e7:	41 c6 04 24 27       	movb   $0x27,(%r12)
    33ec:	e9 6f fb ff ff       	jmp    2f60 <__cxa_finalize@plt+0xc60>
    33f1:	c6 04 24 01          	movb   $0x1,(%rsp)
    33f5:	45 31 ed             	xor    %r13d,%r13d
    33f8:	c6 44 24 5f 00       	movb   $0x0,0x5f(%rsp)
    33fd:	48 c7 44 24 60 00 00 	movq   $0x0,0x60(%rsp)
    3404:	00 00 
    3406:	c6 44 24 5e 01       	movb   $0x1,0x5e(%rsp)
    340b:	c6 44 24 10 01       	movb   $0x1,0x10(%rsp)
    3410:	48 8d 05 12 3f 00 00 	lea    0x3f12(%rip),%rax        # 7329 <__cxa_finalize@plt+0x5029>
    3417:	31 db                	xor    %ebx,%ebx
    3419:	41 ba 02 00 00 00    	mov    $0x2,%r10d
    341f:	48 c7 44 24 18 01 00 	movq   $0x1,0x18(%rsp)
    3426:	00 00 
    3428:	48 89 44 24 50       	mov    %rax,0x50(%rsp)
    342d:	e9 2e fb ff ff       	jmp    2f60 <__cxa_finalize@plt+0xc60>
    3432:	85 ed                	test   %ebp,%ebp
    3434:	0f 85 f7 0c 00 00    	jne    4131 <__cxa_finalize@plt+0x1e31>
    343a:	4d 85 c9             	test   %r9,%r9
    343d:	0f 84 95 0b 00 00    	je     3fd8 <__cxa_finalize@plt+0x1cd8>
    3443:	41 c6 04 24 22       	movb   $0x22,(%r12)
    3448:	45 31 ed             	xor    %r13d,%r13d
    344b:	c6 04 24 01          	movb   $0x1,(%rsp)
    344f:	c6 44 24 5f 00       	movb   $0x0,0x5f(%rsp)
    3454:	48 c7 44 24 60 00 00 	movq   $0x0,0x60(%rsp)
    345b:	00 00 
    345d:	48 8d 05 c3 3e 00 00 	lea    0x3ec3(%rip),%rax        # 7327 <__cxa_finalize@plt+0x5027>
    3464:	c6 44 24 5e 00       	movb   $0x0,0x5e(%rsp)
    3469:	bb 01 00 00 00       	mov    $0x1,%ebx
    346e:	c6 44 24 10 01       	movb   $0x1,0x10(%rsp)
    3473:	48 c7 44 24 18 01 00 	movq   $0x1,0x18(%rsp)
    347a:	00 00 
    347c:	48 89 44 24 50       	mov    %rax,0x50(%rsp)
    3481:	e9 da fa ff ff       	jmp    2f60 <__cxa_finalize@plt+0xc60>
    3486:	48 8d 05 9a 3e 00 00 	lea    0x3e9a(%rip),%rax        # 7327 <__cxa_finalize@plt+0x5027>
    348d:	c6 04 24 01          	movb   $0x1,(%rsp)
    3491:	45 31 ed             	xor    %r13d,%r13d
    3494:	31 db                	xor    %ebx,%ebx
    3496:	c6 44 24 5f 00       	movb   $0x0,0x5f(%rsp)
    349b:	41 ba 05 00 00 00    	mov    $0x5,%r10d
    34a1:	48 c7 44 24 60 00 00 	movq   $0x0,0x60(%rsp)
    34a8:	00 00 
    34aa:	c6 44 24 5e 01       	movb   $0x1,0x5e(%rsp)
    34af:	c6 44 24 10 01       	movb   $0x1,0x10(%rsp)
    34b4:	48 c7 44 24 18 01 00 	movq   $0x1,0x18(%rsp)
    34bb:	00 00 
    34bd:	48 89 44 24 50       	mov    %rax,0x50(%rsp)
    34c2:	e9 99 fa ff ff       	jmp    2f60 <__cxa_finalize@plt+0xc60>
    34c7:	c6 04 24 01          	movb   $0x1,(%rsp)
    34cb:	45 31 ed             	xor    %r13d,%r13d
    34ce:	c6 44 24 5f 00       	movb   $0x0,0x5f(%rsp)
    34d3:	48 c7 44 24 60 00 00 	movq   $0x0,0x60(%rsp)
    34da:	00 00 
    34dc:	c6 44 24 5e 01       	movb   $0x1,0x5e(%rsp)
    34e1:	c6 44 24 10 00       	movb   $0x0,0x10(%rsp)
    34e6:	e9 25 ff ff ff       	jmp    3410 <__cxa_finalize@plt+0x1110>
    34eb:	c6 04 24 01          	movb   $0x1,(%rsp)
    34ef:	45 31 ed             	xor    %r13d,%r13d
    34f2:	31 db                	xor    %ebx,%ebx
    34f4:	c6 44 24 5f 00       	movb   $0x0,0x5f(%rsp)
    34f9:	48 c7 44 24 60 00 00 	movq   $0x0,0x60(%rsp)
    3500:	00 00 
    3502:	c6 44 24 5e 00       	movb   $0x0,0x5e(%rsp)
    3507:	c6 44 24 10 00       	movb   $0x0,0x10(%rsp)
    350c:	48 c7 44 24 18 00 00 	movq   $0x0,0x18(%rsp)
    3513:	00 00 
    3515:	48 c7 44 24 50 00 00 	movq   $0x0,0x50(%rsp)
    351c:	00 00 
    351e:	e9 3d fa ff ff       	jmp    2f60 <__cxa_finalize@plt+0xc60>
    3523:	0f 1f 44 00 00       	nopl   0x0(%rax,%rax,1)
    3528:	80 fa 5c             	cmp    $0x5c,%dl
    352b:	0f 85 aa fb ff ff    	jne    30db <__cxa_finalize@plt+0xddb>
    3531:	41 83 fa 02          	cmp    $0x2,%r10d
    3535:	0f 84 ad 08 00 00    	je     3de8 <__cxa_finalize@plt+0x1ae8>
    353b:	44 0f b6 74 24 10    	movzbl 0x10(%rsp),%r14d
    3541:	44 22 74 24 5e       	and    0x5e(%rsp),%r14b
    3546:	0f 84 24 07 00 00    	je     3c70 <__cxa_finalize@plt+0x1970>
    354c:	48 83 7c 24 18 00    	cmpq   $0x0,0x18(%rsp)
    3552:	0f 84 3f fc ff ff    	je     3197 <__cxa_finalize@plt+0xe97>
    3558:	48 83 c5 01          	add    $0x1,%rbp
    355c:	44 89 e8             	mov    %r13d,%eax
    355f:	45 31 ff             	xor    %r15d,%r15d
    3562:	ba 5c 00 00 00       	mov    $0x5c,%edx
    3567:	66 0f 1f 84 00 00 00 	nopw   0x0(%rax,%rax,1)
    356e:	00 00 
    3570:	84 c0                	test   %al,%al
    3572:	0f 84 39 fb ff ff    	je     30b1 <__cxa_finalize@plt+0xdb1>
    3578:	4c 39 cb             	cmp    %r9,%rbx
    357b:	73 05                	jae    3582 <__cxa_finalize@plt+0x1282>
    357d:	41 c6 04 1c 27       	movb   $0x27,(%r12,%rbx,1)
    3582:	48 8d 43 01          	lea    0x1(%rbx),%rax
    3586:	4c 39 c8             	cmp    %r9,%rax
    3589:	73 06                	jae    3591 <__cxa_finalize@plt+0x1291>
    358b:	41 c6 44 1c 01 27    	movb   $0x27,0x1(%r12,%rbx,1)
    3591:	48 83 c3 02          	add    $0x2,%rbx
    3595:	45 31 ed             	xor    %r13d,%r13d
    3598:	e9 14 fb ff ff       	jmp    30b1 <__cxa_finalize@plt+0xdb1>
    359d:	0f 1f 00             	nopl   (%rax)
    35a0:	80 fa 7d             	cmp    $0x7d,%dl
    35a3:	0f 84 6f 07 00 00    	je     3d18 <__cxa_finalize@plt+0x1a18>
    35a9:	0f 8e c7 0d 00 00    	jle    4376 <__cxa_finalize@plt+0x2076>
    35af:	80 fa 7e             	cmp    $0x7e,%dl
    35b2:	0f 84 5d fd ff ff    	je     3315 <__cxa_finalize@plt+0x1015>
    35b8:	ba 7f 00 00 00       	mov    $0x7f,%edx
    35bd:	48 83 7c 24 68 01    	cmpq   $0x1,0x68(%rsp)
    35c3:	0f 84 27 fb ff ff    	je     30f0 <__cxa_finalize@plt+0xdf0>
    35c9:	48 8d 84 24 a0 00 00 	lea    0xa0(%rsp),%rax
    35d0:	00 
    35d1:	48 c7 84 24 a0 00 00 	movq   $0x0,0xa0(%rsp)
    35d8:	00 00 00 00 00 
    35dd:	48 89 44 24 28       	mov    %rax,0x28(%rsp)
    35e2:	49 83 fb ff          	cmp    $0xffffffffffffffff,%r11
    35e6:	75 35                	jne    361d <__cxa_finalize@plt+0x131d>
    35e8:	48 8b 7c 24 08       	mov    0x8(%rsp),%rdi
    35ed:	44 89 54 24 48       	mov    %r10d,0x48(%rsp)
    35f2:	4c 89 4c 24 40       	mov    %r9,0x40(%rsp)
    35f7:	88 54 24 38          	mov    %dl,0x38(%rsp)
    35fb:	44 88 44 24 30       	mov    %r8b,0x30(%rsp)
    3600:	e8 0b eb ff ff       	call   2110 <strlen@plt>
    3605:	44 8b 54 24 48       	mov    0x48(%rsp),%r10d
    360a:	4c 8b 4c 24 40       	mov    0x40(%rsp),%r9
    360f:	0f b6 54 24 38       	movzbl 0x38(%rsp),%edx
    3614:	44 0f b6 44 24 30    	movzbl 0x30(%rsp),%r8d
    361a:	49 89 c3             	mov    %rax,%r11
    361d:	48 8d 84 24 9c 00 00 	lea    0x9c(%rsp),%rax
    3624:	00 
    3625:	44 88 44 24 74       	mov    %r8b,0x74(%rsp)
    362a:	31 f6                	xor    %esi,%esi
    362c:	48 89 44 24 30       	mov    %rax,0x30(%rsp)
    3631:	88 54 24 76          	mov    %dl,0x76(%rsp)
    3635:	44 88 74 24 77       	mov    %r14b,0x77(%rsp)
    363a:	4c 89 64 24 40       	mov    %r12,0x40(%rsp)
    363f:	4c 89 4c 24 48       	mov    %r9,0x48(%rsp)
    3644:	44 89 54 24 38       	mov    %r10d,0x38(%rsp)
    3649:	44 88 6c 24 75       	mov    %r13b,0x75(%rsp)
    364e:	4d 89 dd             	mov    %r11,%r13
    3651:	48 89 5c 24 78       	mov    %rbx,0x78(%rsp)
    3656:	48 89 f3             	mov    %rsi,%rbx
    3659:	48 8b 44 24 08       	mov    0x8(%rsp),%rax
    365e:	4c 8d 64 1d 00       	lea    0x0(%rbp,%rbx,1),%r12
    3663:	48 8b 4c 24 28       	mov    0x28(%rsp),%rcx
    3668:	4c 89 ea             	mov    %r13,%rdx
    366b:	48 8b 7c 24 30       	mov    0x30(%rsp),%rdi
    3670:	4c 29 e2             	sub    %r12,%rdx
    3673:	4a 8d 34 20          	lea    (%rax,%r12,1),%rsi
    3677:	e8 64 28 00 00       	call   5ee0 <__cxa_finalize@plt+0x3be0>
    367c:	49 89 c6             	mov    %rax,%r14
    367f:	48 85 c0             	test   %rax,%rax
    3682:	74 4e                	je     36d2 <__cxa_finalize@plt+0x13d2>
    3684:	48 83 f8 ff          	cmp    $0xffffffffffffffff,%rax
    3688:	0f 84 cd 09 00 00    	je     405b <__cxa_finalize@plt+0x1d5b>
    368e:	48 83 f8 fe          	cmp    $0xfffffffffffffffe,%rax
    3692:	0f 84 38 0a 00 00    	je     40d0 <__cxa_finalize@plt+0x1dd0>
    3698:	83 7c 24 38 02       	cmpl   $0x2,0x38(%rsp)
    369d:	75 0b                	jne    36aa <__cxa_finalize@plt+0x13aa>
    369f:	80 7c 24 5e 00       	cmpb   $0x0,0x5e(%rsp)
    36a4:	0f 85 a6 07 00 00    	jne    3e50 <__cxa_finalize@plt+0x1b50>
    36aa:	8b bc 24 9c 00 00 00 	mov    0x9c(%rsp),%edi
    36b1:	e8 2a ec ff ff       	call   22e0 <iswprint@plt>
    36b6:	48 8b 7c 24 28       	mov    0x28(%rsp),%rdi
    36bb:	85 c0                	test   %eax,%eax
    36bd:	b8 00 00 00 00       	mov    $0x0,%eax
    36c2:	44 0f 44 f8          	cmove  %eax,%r15d
    36c6:	4c 01 f3             	add    %r14,%rbx
    36c9:	e8 02 ec ff ff       	call   22d0 <mbsinit@plt>
    36ce:	85 c0                	test   %eax,%eax
    36d0:	74 87                	je     3659 <__cxa_finalize@plt+0x1359>
    36d2:	48 89 de             	mov    %rbx,%rsi
    36d5:	4d 89 eb             	mov    %r13,%r11
    36d8:	44 89 ff             	mov    %r15d,%edi
    36db:	44 0f b6 44 24 74    	movzbl 0x74(%rsp),%r8d
    36e1:	0f b6 54 24 76       	movzbl 0x76(%rsp),%edx
    36e6:	44 0f b6 74 24 77    	movzbl 0x77(%rsp),%r14d
    36ec:	83 f7 01             	xor    $0x1,%edi
    36ef:	48 8b 5c 24 78       	mov    0x78(%rsp),%rbx
    36f4:	4c 8b 64 24 40       	mov    0x40(%rsp),%r12
    36f9:	4c 8b 4c 24 48       	mov    0x48(%rsp),%r9
    36fe:	44 0f b6 6c 24 75    	movzbl 0x75(%rsp),%r13d
    3704:	44 8b 54 24 38       	mov    0x38(%rsp),%r10d
    3709:	40 22 7c 24 10       	and    0x10(%rsp),%dil
    370e:	48 83 fe 01          	cmp    $0x1,%rsi
    3712:	0f 86 2f fa ff ff    	jbe    3147 <__cxa_finalize@plt+0xe47>
    3718:	44 88 7c 24 28       	mov    %r15b,0x28(%rsp)
    371d:	48 8d 0c 2e          	lea    (%rsi,%rbp,1),%rcx
    3721:	4c 8b 44 24 08       	mov    0x8(%rsp),%r8
    3726:	31 f6                	xor    %esi,%esi
    3728:	44 0f b6 7c 24 5e    	movzbl 0x5e(%rsp),%r15d
    372e:	e9 b3 00 00 00       	jmp    37e6 <__cxa_finalize@plt+0x14e6>
    3733:	0f 1f 44 00 00       	nopl   0x0(%rax,%rax,1)
    3738:	41 83 fa 02          	cmp    $0x2,%r10d
    373c:	0f 94 c0             	sete   %al
    373f:	45 84 ff             	test   %r15b,%r15b
    3742:	0f 85 3b 08 00 00    	jne    3f83 <__cxa_finalize@plt+0x1c83>
    3748:	44 89 ee             	mov    %r13d,%esi
    374b:	83 f6 01             	xor    $0x1,%esi
    374e:	40 20 f0             	and    %sil,%al
    3751:	74 2f                	je     3782 <__cxa_finalize@plt+0x1482>
    3753:	4c 39 cb             	cmp    %r9,%rbx
    3756:	73 05                	jae    375d <__cxa_finalize@plt+0x145d>
    3758:	41 c6 04 1c 27       	movb   $0x27,(%r12,%rbx,1)
    375d:	48 8d 73 01          	lea    0x1(%rbx),%rsi
    3761:	4c 39 ce             	cmp    %r9,%rsi
    3764:	73 06                	jae    376c <__cxa_finalize@plt+0x146c>
    3766:	41 c6 44 1c 01 24    	movb   $0x24,0x1(%r12,%rbx,1)
    376c:	48 8d 73 02          	lea    0x2(%rbx),%rsi
    3770:	4c 39 ce             	cmp    %r9,%rsi
    3773:	73 06                	jae    377b <__cxa_finalize@plt+0x147b>
    3775:	41 c6 44 1c 02 27    	movb   $0x27,0x2(%r12,%rbx,1)
    377b:	48 83 c3 03          	add    $0x3,%rbx
    377f:	41 89 c5             	mov    %eax,%r13d
    3782:	4c 39 cb             	cmp    %r9,%rbx
    3785:	73 05                	jae    378c <__cxa_finalize@plt+0x148c>
    3787:	41 c6 04 1c 5c       	movb   $0x5c,(%r12,%rbx,1)
    378c:	48 8d 43 01          	lea    0x1(%rbx),%rax
    3790:	4c 39 c8             	cmp    %r9,%rax
    3793:	73 0d                	jae    37a2 <__cxa_finalize@plt+0x14a2>
    3795:	89 d0                	mov    %edx,%eax
    3797:	c0 e8 06             	shr    $0x6,%al
    379a:	83 c0 30             	add    $0x30,%eax
    379d:	41 88 44 1c 01       	mov    %al,0x1(%r12,%rbx,1)
    37a2:	48 8d 43 02          	lea    0x2(%rbx),%rax
    37a6:	4c 39 c8             	cmp    %r9,%rax
    37a9:	73 10                	jae    37bb <__cxa_finalize@plt+0x14bb>
    37ab:	89 d0                	mov    %edx,%eax
    37ad:	c0 e8 03             	shr    $0x3,%al
    37b0:	83 e0 07             	and    $0x7,%eax
    37b3:	83 c0 30             	add    $0x30,%eax
    37b6:	41 88 44 1c 02       	mov    %al,0x2(%r12,%rbx,1)
    37bb:	83 e2 07             	and    $0x7,%edx
    37be:	48 83 c5 01          	add    $0x1,%rbp
    37c2:	48 83 c3 03          	add    $0x3,%rbx
    37c6:	83 c2 30             	add    $0x30,%edx
    37c9:	48 39 cd             	cmp    %rcx,%rbp
    37cc:	0f 83 c5 07 00 00    	jae    3f97 <__cxa_finalize@plt+0x1c97>
    37d2:	89 fe                	mov    %edi,%esi
    37d4:	4c 39 cb             	cmp    %r9,%rbx
    37d7:	73 04                	jae    37dd <__cxa_finalize@plt+0x14dd>
    37d9:	41 88 14 1c          	mov    %dl,(%r12,%rbx,1)
    37dd:	41 0f b6 14 28       	movzbl (%r8,%rbp,1),%edx
    37e2:	48 83 c3 01          	add    $0x1,%rbx
    37e6:	40 84 ff             	test   %dil,%dil
    37e9:	0f 85 49 ff ff ff    	jne    3738 <__cxa_finalize@plt+0x1438>
    37ef:	89 f0                	mov    %esi,%eax
    37f1:	83 f0 01             	xor    $0x1,%eax
    37f4:	44 21 e8             	and    %r13d,%eax
    37f7:	45 84 f6             	test   %r14b,%r14b
    37fa:	74 0e                	je     380a <__cxa_finalize@plt+0x150a>
    37fc:	4c 39 cb             	cmp    %r9,%rbx
    37ff:	73 05                	jae    3806 <__cxa_finalize@plt+0x1506>
    3801:	41 c6 04 1c 5c       	movb   $0x5c,(%r12,%rbx,1)
    3806:	48 83 c3 01          	add    $0x1,%rbx
    380a:	48 83 c5 01          	add    $0x1,%rbp
    380e:	48 39 cd             	cmp    %rcx,%rbp
    3811:	0f 83 75 07 00 00    	jae    3f8c <__cxa_finalize@plt+0x1c8c>
    3817:	84 c0                	test   %al,%al
    3819:	0f 84 b1 07 00 00    	je     3fd0 <__cxa_finalize@plt+0x1cd0>
    381f:	4c 39 cb             	cmp    %r9,%rbx
    3822:	73 05                	jae    3829 <__cxa_finalize@plt+0x1529>
    3824:	41 c6 04 1c 27       	movb   $0x27,(%r12,%rbx,1)
    3829:	48 8d 43 01          	lea    0x1(%rbx),%rax
    382d:	4c 39 c8             	cmp    %r9,%rax
    3830:	73 06                	jae    3838 <__cxa_finalize@plt+0x1538>
    3832:	41 c6 44 1c 01 27    	movb   $0x27,0x1(%r12,%rbx,1)
    3838:	48 83 c3 02          	add    $0x2,%rbx
    383c:	45 31 f6             	xor    %r14d,%r14d
    383f:	45 31 ed             	xor    %r13d,%r13d
    3842:	eb 90                	jmp    37d4 <__cxa_finalize@plt+0x14d4>
    3844:	0f 1f 40 00          	nopl   0x0(%rax)
    3848:	48 8b 44 24 18       	mov    0x18(%rsp),%rax
    384d:	48 8d 54 05 00       	lea    0x0(%rbp,%rax,1),%rdx
    3852:	49 83 fb ff          	cmp    $0xffffffffffffffff,%r11
    3856:	75 44                	jne    389c <__cxa_finalize@plt+0x159c>
    3858:	48 83 f8 01          	cmp    $0x1,%rax
    385c:	76 3e                	jbe    389c <__cxa_finalize@plt+0x159c>
    385e:	48 89 f7             	mov    %rsi,%rdi
    3861:	44 89 54 24 48       	mov    %r10d,0x48(%rsp)
    3866:	4c 89 4c 24 40       	mov    %r9,0x40(%rsp)
    386b:	48 89 4c 24 38       	mov    %rcx,0x38(%rsp)
    3870:	48 89 54 24 30       	mov    %rdx,0x30(%rsp)
    3875:	44 88 44 24 28       	mov    %r8b,0x28(%rsp)
    387a:	e8 91 e8 ff ff       	call   2110 <strlen@plt>
    387f:	44 8b 54 24 48       	mov    0x48(%rsp),%r10d
    3884:	4c 8b 4c 24 40       	mov    0x40(%rsp),%r9
    3889:	48 8b 4c 24 38       	mov    0x38(%rsp),%rcx
    388e:	48 8b 54 24 30       	mov    0x30(%rsp),%rdx
    3893:	49 89 c3             	mov    %rax,%r11
    3896:	44 0f b6 44 24 28    	movzbl 0x28(%rsp),%r8d
    389c:	49 39 d3             	cmp    %rdx,%r11
    389f:	0f 82 33 02 00 00    	jb     3ad8 <__cxa_finalize@plt+0x17d8>
    38a5:	48 8b 54 24 18       	mov    0x18(%rsp),%rdx
    38aa:	48 8b 74 24 50       	mov    0x50(%rsp),%rsi
    38af:	48 89 cf             	mov    %rcx,%rdi
    38b2:	44 89 54 24 48       	mov    %r10d,0x48(%rsp)
    38b7:	4c 89 5c 24 40       	mov    %r11,0x40(%rsp)
    38bc:	4c 89 4c 24 38       	mov    %r9,0x38(%rsp)
    38c1:	44 88 44 24 30       	mov    %r8b,0x30(%rsp)
    38c6:	48 89 4c 24 28       	mov    %rcx,0x28(%rsp)
    38cb:	e8 c0 e8 ff ff       	call   2190 <memcmp@plt>
    38d0:	48 8b 4c 24 28       	mov    0x28(%rsp),%rcx
    38d5:	44 0f b6 44 24 30    	movzbl 0x30(%rsp),%r8d
    38db:	85 c0                	test   %eax,%eax
    38dd:	4c 8b 4c 24 38       	mov    0x38(%rsp),%r9
    38e2:	4c 8b 5c 24 40       	mov    0x40(%rsp),%r11
    38e7:	44 8b 54 24 48       	mov    0x48(%rsp),%r10d
    38ec:	0f 85 e6 01 00 00    	jne    3ad8 <__cxa_finalize@plt+0x17d8>
    38f2:	80 7c 24 5e 00       	cmpb   $0x0,0x5e(%rsp)
    38f7:	0f 85 9a f8 ff ff    	jne    3197 <__cxa_finalize@plt+0xe97>
    38fd:	0f b6 11             	movzbl (%rcx),%edx
    3900:	80 fa 3f             	cmp    $0x3f,%dl
    3903:	0f 8f b7 03 00 00    	jg     3cc0 <__cxa_finalize@plt+0x19c0>
    3909:	84 d2                	test   %dl,%dl
    390b:	0f 88 ca f7 ff ff    	js     30db <__cxa_finalize@plt+0xddb>
    3911:	80 fa 3f             	cmp    $0x3f,%dl
    3914:	0f 87 c1 f7 ff ff    	ja     30db <__cxa_finalize@plt+0xddb>
    391a:	48 8d 0d ab 3b 00 00 	lea    0x3bab(%rip),%rcx        # 74cc <__cxa_finalize@plt+0x51cc>
    3921:	0f b6 c2             	movzbl %dl,%eax
    3924:	48 63 04 81          	movslq (%rcx,%rax,4),%rax
    3928:	48 01 c8             	add    %rcx,%rax
    392b:	ff e0                	jmp    *%rax
    392d:	0f 1f 00             	nopl   (%rax)
    3930:	44 89 f1             	mov    %r14d,%ecx
    3933:	0f 1f 44 00 00       	nopl   0x0(%rax,%rax,1)
    3938:	45 89 f7             	mov    %r14d,%r15d
    393b:	31 c0                	xor    %eax,%eax
    393d:	41 89 ce             	mov    %ecx,%r14d
    3940:	31 ff                	xor    %edi,%edi
    3942:	e9 e6 f6 ff ff       	jmp    302d <__cxa_finalize@plt+0xd2d>
    3947:	66 0f 1f 84 00 00 00 	nopw   0x0(%rax,%rax,1)
    394e:	00 00 
    3950:	80 fa 7a             	cmp    $0x7a,%dl
    3953:	0f 8f 27 03 00 00    	jg     3c80 <__cxa_finalize@plt+0x1980>
    3959:	80 fa 40             	cmp    $0x40,%dl
    395c:	0f 84 76 f7 ff ff    	je     30d8 <__cxa_finalize@plt+0xdd8>
    3962:	8d 4a bf             	lea    -0x41(%rdx),%ecx
    3965:	b8 01 00 00 00       	mov    $0x1,%eax
    396a:	48 bf ff ff ff 53 ff 	movabs $0x3ffffff53ffffff,%rdi
    3971:	ff ff 03 
    3974:	48 d3 e0             	shl    %cl,%rax
    3977:	31 c9                	xor    %ecx,%ecx
    3979:	48 85 f8             	test   %rdi,%rax
    397c:	75 ba                	jne    3938 <__cxa_finalize@plt+0x1638>
    397e:	45 31 f6             	xor    %r14d,%r14d
    3981:	a9 00 00 00 a4       	test   $0xa4000000,%eax
    3986:	0f 84 c7 02 00 00    	je     3c53 <__cxa_finalize@plt+0x1953>
    398c:	31 c0                	xor    %eax,%eax
    398e:	45 31 ff             	xor    %r15d,%r15d
    3991:	31 ff                	xor    %edi,%edi
    3993:	e9 89 f6 ff ff       	jmp    3021 <__cxa_finalize@plt+0xd21>
    3998:	31 c0                	xor    %eax,%eax
    399a:	45 89 f7             	mov    %r14d,%r15d
    399d:	31 ff                	xor    %edi,%edi
    399f:	ba 20 00 00 00       	mov    $0x20,%edx
    39a4:	e9 78 f6 ff ff       	jmp    3021 <__cxa_finalize@plt+0xd21>
    39a9:	31 c0                	xor    %eax,%eax
    39ab:	45 31 ff             	xor    %r15d,%r15d
    39ae:	ba 66 00 00 00       	mov    $0x66,%edx
    39b3:	e9 ae f6 ff ff       	jmp    3066 <__cxa_finalize@plt+0xd66>
    39b8:	31 c0                	xor    %eax,%eax
    39ba:	ba 09 00 00 00       	mov    $0x9,%edx
    39bf:	b9 74 00 00 00       	mov    $0x74,%ecx
    39c4:	e9 ff f7 ff ff       	jmp    31c8 <__cxa_finalize@plt+0xec8>
    39c9:	31 c0                	xor    %eax,%eax
    39cb:	ba 0d 00 00 00       	mov    $0xd,%edx
    39d0:	b9 72 00 00 00       	mov    $0x72,%ecx
    39d5:	e9 ee f7 ff ff       	jmp    31c8 <__cxa_finalize@plt+0xec8>
    39da:	31 c0                	xor    %eax,%eax
    39dc:	45 31 ff             	xor    %r15d,%r15d
    39df:	ba 62 00 00 00       	mov    $0x62,%edx
    39e4:	e9 7d f6 ff ff       	jmp    3066 <__cxa_finalize@plt+0xd66>
    39e9:	31 c0                	xor    %eax,%eax
    39eb:	45 31 ff             	xor    %r15d,%r15d
    39ee:	ba 76 00 00 00       	mov    $0x76,%edx
    39f3:	e9 6e f6 ff ff       	jmp    3066 <__cxa_finalize@plt+0xd66>
    39f8:	31 c0                	xor    %eax,%eax
    39fa:	ba 0a 00 00 00       	mov    $0xa,%edx
    39ff:	b9 6e 00 00 00       	mov    $0x6e,%ecx
    3a04:	e9 bf f7 ff ff       	jmp    31c8 <__cxa_finalize@plt+0xec8>
    3a09:	31 c0                	xor    %eax,%eax
    3a0b:	45 31 ff             	xor    %r15d,%r15d
    3a0e:	ba 61 00 00 00       	mov    $0x61,%edx
    3a13:	e9 4e f6 ff ff       	jmp    3066 <__cxa_finalize@plt+0xd66>
    3a18:	48 8d 53 01          	lea    0x1(%rbx),%rdx
    3a1c:	44 89 f7             	mov    %r14d,%edi
    3a1f:	31 c0                	xor    %eax,%eax
    3a21:	0f 1f 80 00 00 00 00 	nopl   0x0(%rax)
    3a28:	4c 39 cb             	cmp    %r9,%rbx
    3a2b:	0f 83 8d 05 00 00    	jae    3fbe <__cxa_finalize@plt+0x1cbe>
    3a31:	41 c6 04 1c 5c       	movb   $0x5c,(%r12,%rbx,1)
    3a36:	45 84 c0             	test   %r8b,%r8b
    3a39:	0f 84 21 09 00 00    	je     4360 <__cxa_finalize@plt+0x2060>
    3a3f:	48 8d 4d 01          	lea    0x1(%rbp),%rcx
    3a43:	4c 39 d9             	cmp    %r11,%rcx
    3a46:	73 1b                	jae    3a63 <__cxa_finalize@plt+0x1763>
    3a48:	48 8b 74 24 08       	mov    0x8(%rsp),%rsi
    3a4d:	0f b6 74 2e 01       	movzbl 0x1(%rsi,%rbp,1),%esi
    3a52:	8d 4e d0             	lea    -0x30(%rsi),%ecx
    3a55:	40 88 74 24 28       	mov    %sil,0x28(%rsp)
    3a5a:	80 f9 09             	cmp    $0x9,%cl
    3a5d:	0f 86 8f 05 00 00    	jbe    3ff2 <__cxa_finalize@plt+0x1cf2>
    3a63:	41 89 fe             	mov    %edi,%r14d
    3a66:	48 89 d3             	mov    %rdx,%rbx
    3a69:	44 89 ff             	mov    %r15d,%edi
    3a6c:	ba 30 00 00 00       	mov    $0x30,%edx
    3a71:	45 31 ff             	xor    %r15d,%r15d
    3a74:	e9 a8 f5 ff ff       	jmp    3021 <__cxa_finalize@plt+0xd21>
    3a79:	0f 1f 80 00 00 00 00 	nopl   0x0(%rax)
    3a80:	80 7c 24 5e 00       	cmpb   $0x0,0x5e(%rsp)
    3a85:	0f 85 fe f6 ff ff    	jne    3189 <__cxa_finalize@plt+0xe89>
    3a8b:	4d 85 c9             	test   %r9,%r9
    3a8e:	0f 84 a4 04 00 00    	je     3f38 <__cxa_finalize@plt+0x1c38>
    3a94:	31 c0                	xor    %eax,%eax
    3a96:	48 83 7c 24 60 00    	cmpq   $0x0,0x60(%rsp)
    3a9c:	0f 85 96 04 00 00    	jne    3f38 <__cxa_finalize@plt+0x1c38>
    3aa2:	44 88 7c 24 5f       	mov    %r15b,0x5f(%rsp)
    3aa7:	48 83 c3 03          	add    $0x3,%rbx
    3aab:	31 ff                	xor    %edi,%edi
    3aad:	45 31 ed             	xor    %r13d,%r13d
    3ab0:	4c 89 4c 24 60       	mov    %r9,0x60(%rsp)
    3ab5:	ba 27 00 00 00       	mov    $0x27,%edx
    3aba:	49 89 c1             	mov    %rax,%r9
    3abd:	0f 1f 00             	nopl   (%rax)
    3ac0:	83 f7 01             	xor    $0x1,%edi
    3ac3:	48 83 c5 01          	add    $0x1,%rbp
    3ac7:	89 f8                	mov    %edi,%eax
    3ac9:	44 21 e8             	and    %r13d,%eax
    3acc:	e9 9f fa ff ff       	jmp    3570 <__cxa_finalize@plt+0x1270>
    3ad1:	0f 1f 80 00 00 00 00 	nopl   0x0(%rax)
    3ad8:	0f b6 11             	movzbl (%rcx),%edx
    3adb:	80 fa 3f             	cmp    $0x3f,%dl
    3ade:	0f 8f 6c fe ff ff    	jg     3950 <__cxa_finalize@plt+0x1650>
    3ae4:	84 d2                	test   %dl,%dl
    3ae6:	0f 88 ec f5 ff ff    	js     30d8 <__cxa_finalize@plt+0xdd8>
    3aec:	80 fa 3f             	cmp    $0x3f,%dl
    3aef:	0f 87 e3 f5 ff ff    	ja     30d8 <__cxa_finalize@plt+0xdd8>
    3af5:	48 8d 3d d0 3a 00 00 	lea    0x3ad0(%rip),%rdi        # 75cc <__cxa_finalize@plt+0x52cc>
    3afc:	0f b6 c2             	movzbl %dl,%eax
    3aff:	48 63 04 87          	movslq (%rdi,%rax,4),%rax
    3b03:	48 01 f8             	add    %rdi,%rax
    3b06:	ff e0                	jmp    *%rax
    3b08:	0f 1f 84 00 00 00 00 	nopl   0x0(%rax,%rax,1)
    3b0f:	00 
    3b10:	31 c9                	xor    %ecx,%ecx
    3b12:	e9 21 fe ff ff       	jmp    3938 <__cxa_finalize@plt+0x1638>
    3b17:	66 0f 1f 84 00 00 00 	nopw   0x0(%rax,%rax,1)
    3b1e:	00 00 
    3b20:	31 c0                	xor    %eax,%eax
    3b22:	45 31 f6             	xor    %r14d,%r14d
    3b25:	45 31 ff             	xor    %r15d,%r15d
    3b28:	31 ff                	xor    %edi,%edi
    3b2a:	e9 f2 f4 ff ff       	jmp    3021 <__cxa_finalize@plt+0xd21>
    3b2f:	90                   	nop
    3b30:	80 7c 24 5e 00       	cmpb   $0x0,0x5e(%rsp)
    3b35:	0f 85 8f 07 00 00    	jne    42ca <__cxa_finalize@plt+0x1fca>
    3b3b:	41 83 fa 02          	cmp    $0x2,%r10d
    3b3f:	44 89 ef             	mov    %r13d,%edi
    3b42:	48 8d 53 01          	lea    0x1(%rbx),%rdx
    3b46:	0f 94 c0             	sete   %al
    3b49:	83 f7 01             	xor    $0x1,%edi
    3b4c:	40 20 c7             	and    %al,%dil
    3b4f:	0f 84 d3 fe ff ff    	je     3a28 <__cxa_finalize@plt+0x1728>
    3b55:	4c 39 cb             	cmp    %r9,%rbx
    3b58:	73 05                	jae    3b5f <__cxa_finalize@plt+0x185f>
    3b5a:	41 c6 04 1c 27       	movb   $0x27,(%r12,%rbx,1)
    3b5f:	4c 39 ca             	cmp    %r9,%rdx
    3b62:	73 05                	jae    3b69 <__cxa_finalize@plt+0x1869>
    3b64:	41 c6 04 14 24       	movb   $0x24,(%r12,%rdx,1)
    3b69:	48 8d 43 02          	lea    0x2(%rbx),%rax
    3b6d:	4c 39 c8             	cmp    %r9,%rax
    3b70:	73 06                	jae    3b78 <__cxa_finalize@plt+0x1878>
    3b72:	41 c6 44 1c 02 27    	movb   $0x27,0x2(%r12,%rbx,1)
    3b78:	48 8d 43 03          	lea    0x3(%rbx),%rax
    3b7c:	48 83 c3 04          	add    $0x4,%rbx
    3b80:	4c 39 c8             	cmp    %r9,%rax
    3b83:	0f 83 19 04 00 00    	jae    3fa2 <__cxa_finalize@plt+0x1ca2>
    3b89:	41 89 fd             	mov    %edi,%r13d
    3b8c:	83 f7 01             	xor    $0x1,%edi
    3b8f:	41 c6 04 04 5c       	movb   $0x5c,(%r12,%rax,1)
    3b94:	45 31 ff             	xor    %r15d,%r15d
    3b97:	89 f8                	mov    %edi,%eax
    3b99:	ba 30 00 00 00       	mov    $0x30,%edx
    3b9e:	48 83 c5 01          	add    $0x1,%rbp
    3ba2:	44 21 e8             	and    %r13d,%eax
    3ba5:	e9 c6 f9 ff ff       	jmp    3570 <__cxa_finalize@plt+0x1270>
    3baa:	45 31 f6             	xor    %r14d,%r14d
    3bad:	e9 b8 f6 ff ff       	jmp    326a <__cxa_finalize@plt+0xf6a>
    3bb2:	ba 23 00 00 00       	mov    $0x23,%edx
    3bb7:	45 31 f6             	xor    %r14d,%r14d
    3bba:	e9 56 f7 ff ff       	jmp    3315 <__cxa_finalize@plt+0x1015>
    3bbf:	45 89 f7             	mov    %r14d,%r15d
    3bc2:	31 c0                	xor    %eax,%eax
    3bc4:	45 31 f6             	xor    %r14d,%r14d
    3bc7:	31 ff                	xor    %edi,%edi
    3bc9:	ba 20 00 00 00       	mov    $0x20,%edx
    3bce:	e9 4e f4 ff ff       	jmp    3021 <__cxa_finalize@plt+0xd21>
    3bd3:	31 c0                	xor    %eax,%eax
    3bd5:	45 31 ff             	xor    %r15d,%r15d
    3bd8:	ba 66 00 00 00       	mov    $0x66,%edx
    3bdd:	e9 79 f4 ff ff       	jmp    305b <__cxa_finalize@plt+0xd5b>
    3be2:	31 c0                	xor    %eax,%eax
    3be4:	ba 09 00 00 00       	mov    $0x9,%edx
    3be9:	45 31 f6             	xor    %r14d,%r14d
    3bec:	b9 74 00 00 00       	mov    $0x74,%ecx
    3bf1:	e9 d2 f5 ff ff       	jmp    31c8 <__cxa_finalize@plt+0xec8>
    3bf6:	45 31 f6             	xor    %r14d,%r14d
    3bf9:	e9 b4 f6 ff ff       	jmp    32b2 <__cxa_finalize@plt+0xfb2>
    3bfe:	31 c0                	xor    %eax,%eax
    3c00:	ba 0d 00 00 00       	mov    $0xd,%edx
    3c05:	45 31 f6             	xor    %r14d,%r14d
    3c08:	b9 72 00 00 00       	mov    $0x72,%ecx
    3c0d:	e9 b6 f5 ff ff       	jmp    31c8 <__cxa_finalize@plt+0xec8>
    3c12:	31 c0                	xor    %eax,%eax
    3c14:	45 31 ff             	xor    %r15d,%r15d
    3c17:	ba 76 00 00 00       	mov    $0x76,%edx
    3c1c:	e9 3a f4 ff ff       	jmp    305b <__cxa_finalize@plt+0xd5b>
    3c21:	31 c0                	xor    %eax,%eax
    3c23:	ba 0a 00 00 00       	mov    $0xa,%edx
    3c28:	45 31 f6             	xor    %r14d,%r14d
    3c2b:	b9 6e 00 00 00       	mov    $0x6e,%ecx
    3c30:	e9 93 f5 ff ff       	jmp    31c8 <__cxa_finalize@plt+0xec8>
    3c35:	31 c0                	xor    %eax,%eax
    3c37:	45 31 ff             	xor    %r15d,%r15d
    3c3a:	ba 62 00 00 00       	mov    $0x62,%edx
    3c3f:	e9 17 f4 ff ff       	jmp    305b <__cxa_finalize@plt+0xd5b>
    3c44:	31 c0                	xor    %eax,%eax
    3c46:	45 31 ff             	xor    %r15d,%r15d
    3c49:	ba 61 00 00 00       	mov    $0x61,%edx
    3c4e:	e9 08 f4 ff ff       	jmp    305b <__cxa_finalize@plt+0xd5b>
    3c53:	80 fa 5c             	cmp    $0x5c,%dl
    3c56:	0f 85 7f f4 ff ff    	jne    30db <__cxa_finalize@plt+0xddb>
    3c5c:	80 7c 24 5e 00       	cmpb   $0x0,0x5e(%rsp)
    3c61:	0f 85 f1 f8 ff ff    	jne    3558 <__cxa_finalize@plt+0x1258>
    3c67:	66 0f 1f 84 00 00 00 	nopw   0x0(%rax,%rax,1)
    3c6e:	00 00 
    3c70:	31 c0                	xor    %eax,%eax
    3c72:	b9 5c 00 00 00       	mov    $0x5c,%ecx
    3c77:	e9 4c f5 ff ff       	jmp    31c8 <__cxa_finalize@plt+0xec8>
    3c7c:	0f 1f 40 00          	nopl   0x0(%rax)
    3c80:	80 fa 7d             	cmp    $0x7d,%dl
    3c83:	0f 84 87 00 00 00    	je     3d10 <__cxa_finalize@plt+0x1a10>
    3c89:	0f 8e 02 07 00 00    	jle    4391 <__cxa_finalize@plt+0x2091>
    3c8f:	31 c9                	xor    %ecx,%ecx
    3c91:	80 fa 7e             	cmp    $0x7e,%dl
    3c94:	0f 85 be 00 00 00    	jne    3d58 <__cxa_finalize@plt+0x1a58>
    3c9a:	48 85 ed             	test   %rbp,%rbp
    3c9d:	0f 85 9d 00 00 00    	jne    3d40 <__cxa_finalize@plt+0x1a40>
    3ca3:	45 89 f7             	mov    %r14d,%r15d
    3ca6:	31 c0                	xor    %eax,%eax
    3ca8:	41 89 ce             	mov    %ecx,%r14d
    3cab:	31 ff                	xor    %edi,%edi
    3cad:	ba 7e 00 00 00       	mov    $0x7e,%edx
    3cb2:	e9 6a f3 ff ff       	jmp    3021 <__cxa_finalize@plt+0xd21>
    3cb7:	66 0f 1f 84 00 00 00 	nopw   0x0(%rax,%rax,1)
    3cbe:	00 00 
    3cc0:	80 fa 7a             	cmp    $0x7a,%dl
    3cc3:	0f 8f 9f 00 00 00    	jg     3d68 <__cxa_finalize@plt+0x1a68>
    3cc9:	80 fa 40             	cmp    $0x40,%dl
    3ccc:	0f 84 09 f4 ff ff    	je     30db <__cxa_finalize@plt+0xddb>
    3cd2:	8d 4a bf             	lea    -0x41(%rdx),%ecx
    3cd5:	b8 01 00 00 00       	mov    $0x1,%eax
    3cda:	48 be ff ff ff 53 ff 	movabs $0x3ffffff53ffffff,%rsi
    3ce1:	ff ff 03 
    3ce4:	48 d3 e0             	shl    %cl,%rax
    3ce7:	44 89 f1             	mov    %r14d,%ecx
    3cea:	48 85 f0             	test   %rsi,%rax
    3ced:	0f 85 45 fc ff ff    	jne    3938 <__cxa_finalize@plt+0x1638>
    3cf3:	a9 00 00 00 a4       	test   $0xa4000000,%eax
    3cf8:	0f 85 8e fc ff ff    	jne    398c <__cxa_finalize@plt+0x168c>
    3cfe:	80 fa 5c             	cmp    $0x5c,%dl
    3d01:	0f 84 69 ff ff ff    	je     3c70 <__cxa_finalize@plt+0x1970>
    3d07:	e9 cf f3 ff ff       	jmp    30db <__cxa_finalize@plt+0xddb>
    3d0c:	0f 1f 40 00          	nopl   0x0(%rax)
    3d10:	45 31 f6             	xor    %r14d,%r14d
    3d13:	0f 1f 44 00 00       	nopl   0x0(%rax,%rax,1)
    3d18:	49 83 fb ff          	cmp    $0xffffffffffffffff,%r11
    3d1c:	0f 84 e6 00 00 00    	je     3e08 <__cxa_finalize@plt+0x1b08>
    3d22:	49 83 fb 01          	cmp    $0x1,%r11
    3d26:	0f 84 e9 f5 ff ff    	je     3315 <__cxa_finalize@plt+0x1015>
    3d2c:	41 83 fa 02          	cmp    $0x2,%r10d
    3d30:	0f 94 c0             	sete   %al
    3d33:	45 31 ff             	xor    %r15d,%r15d
    3d36:	31 ff                	xor    %edi,%edi
    3d38:	e9 e4 f2 ff ff       	jmp    3021 <__cxa_finalize@plt+0xd21>
    3d3d:	0f 1f 00             	nopl   (%rax)
    3d40:	41 83 fa 02          	cmp    $0x2,%r10d
    3d44:	ba 7e 00 00 00       	mov    $0x7e,%edx
    3d49:	41 89 ce             	mov    %ecx,%r14d
    3d4c:	0f 94 c0             	sete   %al
    3d4f:	e9 7b f4 ff ff       	jmp    31cf <__cxa_finalize@plt+0xecf>
    3d54:	0f 1f 40 00          	nopl   0x0(%rax)
    3d58:	ba 7f 00 00 00       	mov    $0x7f,%edx
    3d5d:	45 31 f6             	xor    %r14d,%r14d
    3d60:	e9 76 f3 ff ff       	jmp    30db <__cxa_finalize@plt+0xddb>
    3d65:	0f 1f 00             	nopl   (%rax)
    3d68:	80 fa 7d             	cmp    $0x7d,%dl
    3d6b:	74 ab                	je     3d18 <__cxa_finalize@plt+0x1a18>
    3d6d:	0f 8e d3 05 00 00    	jle    4346 <__cxa_finalize@plt+0x2046>
    3d73:	44 89 f1             	mov    %r14d,%ecx
    3d76:	80 fa 7e             	cmp    $0x7e,%dl
    3d79:	0f 84 1b ff ff ff    	je     3c9a <__cxa_finalize@plt+0x199a>
    3d7f:	ba 7f 00 00 00       	mov    $0x7f,%edx
    3d84:	e9 34 f8 ff ff       	jmp    35bd <__cxa_finalize@plt+0x12bd>
    3d89:	41 83 fa 02          	cmp    $0x2,%r10d
    3d8d:	0f 94 c2             	sete   %dl
    3d90:	48 85 db             	test   %rbx,%rbx
    3d93:	0f 94 c0             	sete   %al
    3d96:	20 d0                	and    %dl,%al
    3d98:	0f 84 12 01 00 00    	je     3eb0 <__cxa_finalize@plt+0x1bb0>
    3d9e:	80 7c 24 5e 00       	cmpb   $0x0,0x5e(%rsp)
    3da3:	0f 85 da f3 ff ff    	jne    3183 <__cxa_finalize@plt+0xe83>
    3da9:	80 7c 24 5f 00       	cmpb   $0x0,0x5f(%rsp)
    3dae:	0f 84 6e 05 00 00    	je     4322 <__cxa_finalize@plt+0x2022>
    3db4:	80 3c 24 00          	cmpb   $0x0,(%rsp)
    3db8:	0f 85 1e 05 00 00    	jne    42dc <__cxa_finalize@plt+0x1fdc>
    3dbe:	48 83 7c 24 60 00    	cmpq   $0x0,0x60(%rsp)
    3dc4:	0f 95 c0             	setne  %al
    3dc7:	4d 85 c9             	test   %r9,%r9
    3dca:	0f 94 c2             	sete   %dl
    3dcd:	20 d0                	and    %dl,%al
    3dcf:	0f 84 17 05 00 00    	je     42ec <__cxa_finalize@plt+0x1fec>
    3dd5:	88 44 24 5f          	mov    %al,0x5f(%rsp)
    3dd9:	4c 8b 4c 24 60       	mov    0x60(%rsp),%r9
    3dde:	e9 d6 f5 ff ff       	jmp    33b9 <__cxa_finalize@plt+0x10b9>
    3de3:	0f 1f 44 00 00       	nopl   0x0(%rax,%rax,1)
    3de8:	80 7c 24 5e 00       	cmpb   $0x0,0x5e(%rsp)
    3ded:	0f 85 96 f3 ff ff    	jne    3189 <__cxa_finalize@plt+0xe89>
    3df3:	48 83 c5 01          	add    $0x1,%rbp
    3df7:	44 89 e8             	mov    %r13d,%eax
    3dfa:	45 31 ff             	xor    %r15d,%r15d
    3dfd:	e9 6e f7 ff ff       	jmp    3570 <__cxa_finalize@plt+0x1270>
    3e02:	66 0f 1f 44 00 00    	nopw   0x0(%rax,%rax,1)
    3e08:	48 8b 44 24 08       	mov    0x8(%rsp),%rax
    3e0d:	80 78 01 00          	cmpb   $0x0,0x1(%rax)
    3e11:	0f 85 15 ff ff ff    	jne    3d2c <__cxa_finalize@plt+0x1a2c>
    3e17:	e9 f9 f4 ff ff       	jmp    3315 <__cxa_finalize@plt+0x1015>
    3e1c:	0f 1f 40 00          	nopl   0x0(%rax)
    3e20:	80 7c 24 5e 00       	cmpb   $0x0,0x5e(%rsp)
    3e25:	0f 85 5e f3 ff ff    	jne    3189 <__cxa_finalize@plt+0xe89>
    3e2b:	31 ff                	xor    %edi,%edi
    3e2d:	45 31 ff             	xor    %r15d,%r15d
    3e30:	ba 3f 00 00 00       	mov    $0x3f,%edx
    3e35:	48 83 c5 01          	add    $0x1,%rbp
    3e39:	83 f7 01             	xor    $0x1,%edi
    3e3c:	89 f8                	mov    %edi,%eax
    3e3e:	44 21 e8             	and    %r13d,%eax
    3e41:	e9 2a f7 ff ff       	jmp    3570 <__cxa_finalize@plt+0x1270>
    3e46:	66 2e 0f 1f 84 00 00 	cs nopw 0x0(%rax,%rax,1)
    3e4d:	00 00 00 
    3e50:	48 83 f8 01          	cmp    $0x1,%rax
    3e54:	0f 84 50 f8 ff ff    	je     36aa <__cxa_finalize@plt+0x13aa>
    3e5a:	48 8b 44 24 08       	mov    0x8(%rsp),%rax
    3e5f:	4a 8d 34 30          	lea    (%rax,%r14,1),%rsi
    3e63:	4a 8d 54 20 01       	lea    0x1(%rax,%r12,1),%rdx
    3e68:	4c 01 e6             	add    %r12,%rsi
    3e6b:	eb 10                	jmp    3e7d <__cxa_finalize@plt+0x1b7d>
    3e6d:	0f 1f 00             	nopl   (%rax)
    3e70:	48 83 c2 01          	add    $0x1,%rdx
    3e74:	48 39 f2             	cmp    %rsi,%rdx
    3e77:	0f 84 2d f8 ff ff    	je     36aa <__cxa_finalize@plt+0x13aa>
    3e7d:	0f b6 02             	movzbl (%rdx),%eax
    3e80:	83 e8 5b             	sub    $0x5b,%eax
    3e83:	3c 21                	cmp    $0x21,%al
    3e85:	77 e9                	ja     3e70 <__cxa_finalize@plt+0x1b70>
    3e87:	48 bf 2b 00 00 00 02 	movabs $0x20000002b,%rdi
    3e8e:	00 00 00 
    3e91:	48 0f a3 c7          	bt     %rax,%rdi
    3e95:	73 d9                	jae    3e70 <__cxa_finalize@plt+0x1b70>
    3e97:	4c 8b 64 24 40       	mov    0x40(%rsp),%r12
    3e9c:	4c 8b 4c 24 48       	mov    0x48(%rsp),%r9
    3ea1:	4d 89 eb             	mov    %r13,%r11
    3ea4:	41 ba 02 00 00 00    	mov    $0x2,%r10d
    3eaa:	e9 da f2 ff ff       	jmp    3189 <__cxa_finalize@plt+0xe89>
    3eaf:	90                   	nop
    3eb0:	0f b6 44 24 5e       	movzbl 0x5e(%rsp),%eax
    3eb5:	83 f0 01             	xor    $0x1,%eax
    3eb8:	20 c2                	and    %al,%dl
    3eba:	0f 84 14 03 00 00    	je     41d4 <__cxa_finalize@plt+0x1ed4>
    3ec0:	80 7c 24 5f 00       	cmpb   $0x0,0x5f(%rsp)
    3ec5:	0f 84 34 04 00 00    	je     42ff <__cxa_finalize@plt+0x1fff>
    3ecb:	80 3c 24 00          	cmpb   $0x0,(%rsp)
    3ecf:	0f 85 07 04 00 00    	jne    42dc <__cxa_finalize@plt+0x1fdc>
    3ed5:	4d 85 c9             	test   %r9,%r9
    3ed8:	0f 94 c0             	sete   %al
    3edb:	48 83 7c 24 60 00    	cmpq   $0x0,0x60(%rsp)
    3ee1:	0f 95 c2             	setne  %dl
    3ee4:	20 d0                	and    %dl,%al
    3ee6:	0f 84 23 04 00 00    	je     430f <__cxa_finalize@plt+0x200f>
    3eec:	48 8b 4c 24 60       	mov    0x60(%rsp),%rcx
    3ef1:	31 d2                	xor    %edx,%edx
    3ef3:	31 db                	xor    %ebx,%ebx
    3ef5:	80 3c 24 00          	cmpb   $0x0,(%rsp)
    3ef9:	48 8d 3d 29 34 00 00 	lea    0x3429(%rip),%rdi        # 7329 <__cxa_finalize@plt+0x5029>
    3f00:	48 c7 44 24 18 01 00 	movq   $0x1,0x18(%rsp)
    3f07:	00 00 
    3f09:	48 89 7c 24 50       	mov    %rdi,0x50(%rsp)
    3f0e:	41 ba 02 00 00 00    	mov    $0x2,%r10d
    3f14:	0f 84 16 04 00 00    	je     4330 <__cxa_finalize@plt+0x2030>
    3f1a:	88 44 24 5f          	mov    %al,0x5f(%rsp)
    3f1e:	0f b6 04 24          	movzbl (%rsp),%eax
    3f22:	4c 8b 4c 24 60       	mov    0x60(%rsp),%r9
    3f27:	88 14 24             	mov    %dl,(%rsp)
    3f2a:	48 89 4c 24 60       	mov    %rcx,0x60(%rsp)
    3f2f:	88 44 24 5e          	mov    %al,0x5e(%rsp)
    3f33:	e9 28 f0 ff ff       	jmp    2f60 <__cxa_finalize@plt+0xc60>
    3f38:	4c 39 cb             	cmp    %r9,%rbx
    3f3b:	73 05                	jae    3f42 <__cxa_finalize@plt+0x1c42>
    3f3d:	41 c6 04 1c 27       	movb   $0x27,(%r12,%rbx,1)
    3f42:	48 8d 43 01          	lea    0x1(%rbx),%rax
    3f46:	4c 39 c8             	cmp    %r9,%rax
    3f49:	73 06                	jae    3f51 <__cxa_finalize@plt+0x1c51>
    3f4b:	41 c6 44 1c 01 5c    	movb   $0x5c,0x1(%r12,%rbx,1)
    3f51:	48 8d 43 02          	lea    0x2(%rbx),%rax
    3f55:	4c 39 c8             	cmp    %r9,%rax
    3f58:	73 06                	jae    3f60 <__cxa_finalize@plt+0x1c60>
    3f5a:	41 c6 44 1c 02 27    	movb   $0x27,0x2(%r12,%rbx,1)
    3f60:	4c 89 c8             	mov    %r9,%rax
    3f63:	4c 8b 4c 24 60       	mov    0x60(%rsp),%r9
    3f68:	e9 35 fb ff ff       	jmp    3aa2 <__cxa_finalize@plt+0x17a2>
    3f6d:	48 83 c5 01          	add    $0x1,%rbp
    3f71:	e9 f2 ef ff ff       	jmp    2f68 <__cxa_finalize@plt+0xc68>
    3f76:	0f b6 7c 24 10       	movzbl 0x10(%rsp),%edi
    3f7b:	45 31 ff             	xor    %r15d,%r15d
    3f7e:	e9 95 f7 ff ff       	jmp    3718 <__cxa_finalize@plt+0x1418>
    3f83:	88 44 24 10          	mov    %al,0x10(%rsp)
    3f87:	e9 fd f1 ff ff       	jmp    3189 <__cxa_finalize@plt+0xe89>
    3f8c:	44 0f b6 7c 24 28    	movzbl 0x28(%rsp),%r15d
    3f92:	e9 d9 f5 ff ff       	jmp    3570 <__cxa_finalize@plt+0x1270>
    3f97:	44 0f b6 7c 24 28    	movzbl 0x28(%rsp),%r15d
    3f9d:	e9 0f f1 ff ff       	jmp    30b1 <__cxa_finalize@plt+0xdb1>
    3fa2:	41 89 fd             	mov    %edi,%r13d
    3fa5:	83 f7 01             	xor    $0x1,%edi
    3fa8:	45 31 ff             	xor    %r15d,%r15d
    3fab:	ba 30 00 00 00       	mov    $0x30,%edx
    3fb0:	89 f8                	mov    %edi,%eax
    3fb2:	48 83 c5 01          	add    $0x1,%rbp
    3fb6:	44 21 e8             	and    %r13d,%eax
    3fb9:	e9 b2 f5 ff ff       	jmp    3570 <__cxa_finalize@plt+0x1270>
    3fbe:	45 84 c0             	test   %r8b,%r8b
    3fc1:	0f 85 78 fa ff ff    	jne    3a3f <__cxa_finalize@plt+0x173f>
    3fc7:	e9 97 fa ff ff       	jmp    3a63 <__cxa_finalize@plt+0x1763>
    3fcc:	0f 1f 40 00          	nopl   0x0(%rax)
    3fd0:	45 31 f6             	xor    %r14d,%r14d
    3fd3:	e9 fc f7 ff ff       	jmp    37d4 <__cxa_finalize@plt+0x14d4>
    3fd8:	48 c7 44 24 60 00 00 	movq   $0x0,0x60(%rsp)
    3fdf:	00 00 
    3fe1:	45 31 ed             	xor    %r13d,%r13d
    3fe4:	c6 04 24 01          	movb   $0x1,(%rsp)
    3fe8:	c6 44 24 5f 00       	movb   $0x0,0x5f(%rsp)
    3fed:	e9 6b f4 ff ff       	jmp    345d <__cxa_finalize@plt+0x115d>
    3ff2:	4c 39 ca             	cmp    %r9,%rdx
    3ff5:	73 05                	jae    3ffc <__cxa_finalize@plt+0x1cfc>
    3ff7:	41 c6 04 14 30       	movb   $0x30,(%r12,%rdx,1)
    3ffc:	48 8d 53 02          	lea    0x2(%rbx),%rdx
    4000:	4c 39 ca             	cmp    %r9,%rdx
    4003:	73 06                	jae    400b <__cxa_finalize@plt+0x1d0b>
    4005:	41 c6 44 1c 02 30    	movb   $0x30,0x2(%r12,%rbx,1)
    400b:	41 89 fe             	mov    %edi,%r14d
    400e:	48 83 c3 03          	add    $0x3,%rbx
    4012:	44 89 ff             	mov    %r15d,%edi
    4015:	ba 30 00 00 00       	mov    $0x30,%edx
    401a:	45 31 ff             	xor    %r15d,%r15d
    401d:	e9 ff ef ff ff       	jmp    3021 <__cxa_finalize@plt+0xd21>
    4022:	4c 8b b4 24 88 00 00 	mov    0x88(%rsp),%r14
    4029:	00 
    402a:	41 0f b6 06          	movzbl (%r14),%eax
    402e:	84 c0                	test   %al,%al
    4030:	0f 84 d4 ee ff ff    	je     2f0a <__cxa_finalize@plt+0xc0a>
    4036:	66 2e 0f 1f 84 00 00 	cs nopw 0x0(%rax,%rax,1)
    403d:	00 00 00 
    4040:	4c 39 cb             	cmp    %r9,%rbx
    4043:	73 04                	jae    4049 <__cxa_finalize@plt+0x1d49>
    4045:	41 88 04 1c          	mov    %al,(%r12,%rbx,1)
    4049:	48 83 c3 01          	add    $0x1,%rbx
    404d:	41 0f b6 04 1e       	movzbl (%r14,%rbx,1),%eax
    4052:	84 c0                	test   %al,%al
    4054:	75 ea                	jne    4040 <__cxa_finalize@plt+0x1d40>
    4056:	e9 af ee ff ff       	jmp    2f0a <__cxa_finalize@plt+0xc0a>
    405b:	48 89 de             	mov    %rbx,%rsi
    405e:	4d 89 eb             	mov    %r13,%r11
    4061:	44 0f b6 44 24 74    	movzbl 0x74(%rsp),%r8d
    4067:	45 31 ff             	xor    %r15d,%r15d
    406a:	0f b6 54 24 76       	movzbl 0x76(%rsp),%edx
    406f:	44 0f b6 74 24 77    	movzbl 0x77(%rsp),%r14d
    4075:	48 8b 5c 24 78       	mov    0x78(%rsp),%rbx
    407a:	4c 8b 64 24 40       	mov    0x40(%rsp),%r12
    407f:	4c 8b 4c 24 48       	mov    0x48(%rsp),%r9
    4084:	44 0f b6 6c 24 75    	movzbl 0x75(%rsp),%r13d
    408a:	44 8b 54 24 38       	mov    0x38(%rsp),%r10d
    408f:	0f b6 7c 24 10       	movzbl 0x10(%rsp),%edi
    4094:	e9 75 f6 ff ff       	jmp    370e <__cxa_finalize@plt+0x140e>
    4099:	0f b6 14 08          	movzbl (%rax,%rcx,1),%edx
    409d:	80 fa 3e             	cmp    $0x3e,%dl
    40a0:	0f 87 ea f1 ff ff    	ja     3290 <__cxa_finalize@plt+0xf90>
    40a6:	48 b8 00 00 00 00 82 	movabs $0x7000a38200000000,%rax
    40ad:	a3 00 70 
    40b0:	48 0f a3 d0          	bt     %rdx,%rax
    40b4:	40 0f 92 c7          	setb   %dil
    40b8:	40 84 ff             	test   %dil,%dil
    40bb:	0f 85 87 01 00 00    	jne    4248 <__cxa_finalize@plt+0x1f48>
    40c1:	31 c0                	xor    %eax,%eax
    40c3:	45 31 ff             	xor    %r15d,%r15d
    40c6:	ba 3f 00 00 00       	mov    $0x3f,%edx
    40cb:	e9 51 ef ff ff       	jmp    3021 <__cxa_finalize@plt+0xd21>
    40d0:	4c 89 e0             	mov    %r12,%rax
    40d3:	4d 89 eb             	mov    %r13,%r11
    40d6:	48 89 de             	mov    %rbx,%rsi
    40d9:	44 0f b6 44 24 74    	movzbl 0x74(%rsp),%r8d
    40df:	0f b6 54 24 76       	movzbl 0x76(%rsp),%edx
    40e4:	44 0f b6 74 24 77    	movzbl 0x77(%rsp),%r14d
    40ea:	48 8b 5c 24 78       	mov    0x78(%rsp),%rbx
    40ef:	4c 8b 64 24 40       	mov    0x40(%rsp),%r12
    40f4:	4c 8b 4c 24 48       	mov    0x48(%rsp),%r9
    40f9:	44 0f b6 6c 24 75    	movzbl 0x75(%rsp),%r13d
    40ff:	44 8b 54 24 38       	mov    0x38(%rsp),%r10d
    4104:	48 8b 4c 24 08       	mov    0x8(%rsp),%rcx
    4109:	4c 39 d8             	cmp    %r11,%rax
    410c:	72 10                	jb     411e <__cxa_finalize@plt+0x1e1e>
    410e:	eb 14                	jmp    4124 <__cxa_finalize@plt+0x1e24>
    4110:	48 83 c6 01          	add    $0x1,%rsi
    4114:	48 8d 44 35 00       	lea    0x0(%rbp,%rsi,1),%rax
    4119:	4c 39 d8             	cmp    %r11,%rax
    411c:	73 06                	jae    4124 <__cxa_finalize@plt+0x1e24>
    411e:	80 3c 01 00          	cmpb   $0x0,(%rcx,%rax,1)
    4122:	75 ec                	jne    4110 <__cxa_finalize@plt+0x1e10>
    4124:	0f b6 7c 24 10       	movzbl 0x10(%rsp),%edi
    4129:	45 31 ff             	xor    %r15d,%r15d
    412c:	e9 dd f5 ff ff       	jmp    370e <__cxa_finalize@plt+0x140e>
    4131:	48 8d 05 ef 31 00 00 	lea    0x31ef(%rip),%rax        # 7327 <__cxa_finalize@plt+0x5027>
    4138:	c6 04 24 01          	movb   $0x1,(%rsp)
    413c:	45 31 ed             	xor    %r13d,%r13d
    413f:	31 db                	xor    %ebx,%ebx
    4141:	c6 44 24 5f 00       	movb   $0x0,0x5f(%rsp)
    4146:	48 c7 44 24 60 00 00 	movq   $0x0,0x60(%rsp)
    414d:	00 00 
    414f:	c6 44 24 5e 01       	movb   $0x1,0x5e(%rsp)
    4154:	c6 44 24 10 01       	movb   $0x1,0x10(%rsp)
    4159:	48 c7 44 24 18 01 00 	movq   $0x1,0x18(%rsp)
    4160:	00 00 
    4162:	48 89 44 24 50       	mov    %rax,0x50(%rsp)
    4167:	e9 f4 ed ff ff       	jmp    2f60 <__cxa_finalize@plt+0xc60>
    416c:	44 89 d6             	mov    %r10d,%esi
    416f:	48 89 c7             	mov    %rax,%rdi
    4172:	4c 89 5c 24 18       	mov    %r11,0x18(%rsp)
    4177:	4c 89 4c 24 10       	mov    %r9,0x10(%rsp)
    417c:	44 89 14 24          	mov    %r10d,(%rsp)
    4180:	e8 3b eb ff ff       	call   2cc0 <__cxa_finalize@plt+0x9c0>
    4185:	4c 8b 5c 24 18       	mov    0x18(%rsp),%r11
    418a:	4c 8b 4c 24 10       	mov    0x10(%rsp),%r9
    418f:	48 89 84 24 80 00 00 	mov    %rax,0x80(%rsp)
    4196:	00 
    4197:	44 8b 14 24          	mov    (%rsp),%r10d
    419b:	e9 60 ed ff ff       	jmp    2f00 <__cxa_finalize@plt+0xc00>
    41a0:	44 89 d6             	mov    %r10d,%esi
    41a3:	48 89 c7             	mov    %rax,%rdi
    41a6:	4c 89 5c 24 18       	mov    %r11,0x18(%rsp)
    41ab:	4c 89 4c 24 10       	mov    %r9,0x10(%rsp)
    41b0:	44 89 14 24          	mov    %r10d,(%rsp)
    41b4:	e8 07 eb ff ff       	call   2cc0 <__cxa_finalize@plt+0x9c0>
    41b9:	4c 8b 5c 24 18       	mov    0x18(%rsp),%r11
    41be:	4c 8b 4c 24 10       	mov    0x10(%rsp),%r9
    41c3:	48 89 84 24 88 00 00 	mov    %rax,0x88(%rsp)
    41ca:	00 
    41cb:	44 8b 14 24          	mov    (%rsp),%r10d
    41cf:	e9 e9 ec ff ff       	jmp    2ebd <__cxa_finalize@plt+0xbbd>
    41d4:	49 89 db             	mov    %rbx,%r11
    41d7:	4d 89 e2             	mov    %r12,%r10
    41da:	4d 89 cf             	mov    %r9,%r15
    41dd:	48 8b 7c 24 50       	mov    0x50(%rsp),%rdi
    41e2:	48 85 ff             	test   %rdi,%rdi
    41e5:	74 2c                	je     4213 <__cxa_finalize@plt+0x1f13>
    41e7:	84 c0                	test   %al,%al
    41e9:	74 28                	je     4213 <__cxa_finalize@plt+0x1f13>
    41eb:	0f b6 0f             	movzbl (%rdi),%ecx
    41ee:	48 89 f8             	mov    %rdi,%rax
    41f1:	84 c9                	test   %cl,%cl
    41f3:	74 1e                	je     4213 <__cxa_finalize@plt+0x1f13>
    41f5:	4c 89 da             	mov    %r11,%rdx
    41f8:	4c 29 d8             	sub    %r11,%rax
    41fb:	4c 39 fa             	cmp    %r15,%rdx
    41fe:	73 04                	jae    4204 <__cxa_finalize@plt+0x1f04>
    4200:	41 88 0c 12          	mov    %cl,(%r10,%rdx,1)
    4204:	48 83 c2 01          	add    $0x1,%rdx
    4208:	0f b6 0c 10          	movzbl (%rax,%rdx,1),%ecx
    420c:	84 c9                	test   %cl,%cl
    420e:	75 eb                	jne    41fb <__cxa_finalize@plt+0x1efb>
    4210:	49 89 d3             	mov    %rdx,%r11
    4213:	4d 39 fb             	cmp    %r15,%r11
    4216:	0f 82 81 00 00 00    	jb     429d <__cxa_finalize@plt+0x1f9d>
    421c:	48 8b 84 24 a8 00 00 	mov    0xa8(%rsp),%rax
    4223:	00 
    4224:	64 48 2b 04 25 28 00 	sub    %fs:0x28,%rax
    422b:	00 00 
    422d:	0f 85 59 01 00 00    	jne    438c <__cxa_finalize@plt+0x208c>
    4233:	48 81 c4 b8 00 00 00 	add    $0xb8,%rsp
    423a:	4c 89 d8             	mov    %r11,%rax
    423d:	5b                   	pop    %rbx
    423e:	5d                   	pop    %rbp
    423f:	41 5c                	pop    %r12
    4241:	41 5d                	pop    %r13
    4243:	41 5e                	pop    %r14
    4245:	41 5f                	pop    %r15
    4247:	c3                   	ret
    4248:	80 7c 24 5e 00       	cmpb   $0x0,0x5e(%rsp)
    424d:	0f 85 44 ef ff ff    	jne    3197 <__cxa_finalize@plt+0xe97>
    4253:	4c 39 cb             	cmp    %r9,%rbx
    4256:	73 05                	jae    425d <__cxa_finalize@plt+0x1f5d>
    4258:	41 c6 04 1c 3f       	movb   $0x3f,(%r12,%rbx,1)
    425d:	48 8d 43 01          	lea    0x1(%rbx),%rax
    4261:	4c 39 c8             	cmp    %r9,%rax
    4264:	73 06                	jae    426c <__cxa_finalize@plt+0x1f6c>
    4266:	41 c6 44 1c 01 22    	movb   $0x22,0x1(%r12,%rbx,1)
    426c:	48 8d 43 02          	lea    0x2(%rbx),%rax
    4270:	4c 39 c8             	cmp    %r9,%rax
    4273:	73 06                	jae    427b <__cxa_finalize@plt+0x1f7b>
    4275:	41 c6 44 1c 02 22    	movb   $0x22,0x2(%r12,%rbx,1)
    427b:	48 8d 43 03          	lea    0x3(%rbx),%rax
    427f:	4c 39 c8             	cmp    %r9,%rax
    4282:	73 06                	jae    428a <__cxa_finalize@plt+0x1f8a>
    4284:	41 c6 44 1c 03 3f    	movb   $0x3f,0x3(%r12,%rbx,1)
    428a:	48 83 c3 04          	add    $0x4,%rbx
    428e:	31 c0                	xor    %eax,%eax
    4290:	45 31 ff             	xor    %r15d,%r15d
    4293:	31 ff                	xor    %edi,%edi
    4295:	48 89 cd             	mov    %rcx,%rbp
    4298:	e9 84 ed ff ff       	jmp    3021 <__cxa_finalize@plt+0xd21>
    429d:	43 c6 04 1a 00       	movb   $0x0,(%r10,%r11,1)
    42a2:	e9 75 ff ff ff       	jmp    421c <__cxa_finalize@plt+0x1f1c>
    42a7:	0f b6 44 24 5e       	movzbl 0x5e(%rsp),%eax
    42ac:	4c 89 4c 24 60       	mov    %r9,0x60(%rsp)
    42b1:	45 31 ed             	xor    %r13d,%r13d
    42b4:	31 c9                	xor    %ecx,%ecx
    42b6:	c6 44 24 10 00       	movb   $0x0,0x10(%rsp)
    42bb:	ba 01 00 00 00       	mov    $0x1,%edx
    42c0:	88 04 24             	mov    %al,(%rsp)
    42c3:	31 c0                	xor    %eax,%eax
    42c5:	e9 29 fc ff ff       	jmp    3ef3 <__cxa_finalize@plt+0x1bf3>
    42ca:	41 83 fa 02          	cmp    $0x2,%r10d
    42ce:	b8 04 00 00 00       	mov    $0x4,%eax
    42d3:	44 0f 44 d0          	cmove  %eax,%r10d
    42d7:	e9 bb ee ff ff       	jmp    3197 <__cxa_finalize@plt+0xe97>
    42dc:	4c 8b 4c 24 60       	mov    0x60(%rsp),%r9
    42e1:	41 ba 05 00 00 00    	mov    $0x5,%r10d
    42e7:	e9 34 eb ff ff       	jmp    2e20 <__cxa_finalize@plt+0xb20>
    42ec:	0f b6 44 24 5f       	movzbl 0x5f(%rsp),%eax
    42f1:	4d 89 e2             	mov    %r12,%r10
    42f4:	4d 89 cf             	mov    %r9,%r15
    42f7:	45 31 db             	xor    %r11d,%r11d
    42fa:	e9 de fe ff ff       	jmp    41dd <__cxa_finalize@plt+0x1edd>
    42ff:	49 89 db             	mov    %rbx,%r11
    4302:	4d 89 e2             	mov    %r12,%r10
    4305:	4d 89 cf             	mov    %r9,%r15
    4308:	89 d0                	mov    %edx,%eax
    430a:	e9 ce fe ff ff       	jmp    41dd <__cxa_finalize@plt+0x1edd>
    430f:	0f b6 44 24 5f       	movzbl 0x5f(%rsp),%eax
    4314:	49 89 db             	mov    %rbx,%r11
    4317:	4d 89 e2             	mov    %r12,%r10
    431a:	4d 89 cf             	mov    %r9,%r15
    431d:	e9 bb fe ff ff       	jmp    41dd <__cxa_finalize@plt+0x1edd>
    4322:	4d 89 e2             	mov    %r12,%r10
    4325:	4d 89 cf             	mov    %r9,%r15
    4328:	45 31 db             	xor    %r11d,%r11d
    432b:	e9 ad fe ff ff       	jmp    41dd <__cxa_finalize@plt+0x1edd>
    4330:	4c 8b 4c 24 60       	mov    0x60(%rsp),%r9
    4335:	88 14 24             	mov    %dl,(%rsp)
    4338:	88 44 24 5f          	mov    %al,0x5f(%rsp)
    433c:	48 89 4c 24 60       	mov    %rcx,0x60(%rsp)
    4341:	e9 73 f0 ff ff       	jmp    33b9 <__cxa_finalize@plt+0x10b9>
    4346:	80 fa 7b             	cmp    $0x7b,%dl
    4349:	0f 84 c9 f9 ff ff    	je     3d18 <__cxa_finalize@plt+0x1a18>
    434f:	ba 7c 00 00 00       	mov    $0x7c,%edx
    4354:	e9 33 f6 ff ff       	jmp    398c <__cxa_finalize@plt+0x168c>
    4359:	0f 1f 80 00 00 00 00 	nopl   0x0(%rax)
    4360:	41 89 fe             	mov    %edi,%r14d
    4363:	48 89 d3             	mov    %rdx,%rbx
    4366:	44 89 ff             	mov    %r15d,%edi
    4369:	ba 30 00 00 00       	mov    $0x30,%edx
    436e:	45 31 ff             	xor    %r15d,%r15d
    4371:	e9 d5 ec ff ff       	jmp    304b <__cxa_finalize@plt+0xd4b>
    4376:	80 fa 7b             	cmp    $0x7b,%dl
    4379:	0f 84 99 f9 ff ff    	je     3d18 <__cxa_finalize@plt+0x1a18>
    437f:	45 31 ff             	xor    %r15d,%r15d
    4382:	ba 7c 00 00 00       	mov    $0x7c,%edx
    4387:	e9 e2 ed ff ff       	jmp    316e <__cxa_finalize@plt+0xe6e>
    438c:	e8 8f dd ff ff       	call   2120 <__stack_chk_fail@plt>
    4391:	45 31 f6             	xor    %r14d,%r14d
    4394:	80 fa 7b             	cmp    $0x7b,%dl
    4397:	0f 84 7b f9 ff ff    	je     3d18 <__cxa_finalize@plt+0x1a18>
    439d:	eb b0                	jmp    434f <__cxa_finalize@plt+0x204f>
    439f:	c6 44 24 5e 01       	movb   $0x1,0x5e(%rsp)
    43a4:	c6 44 24 10 00       	movb   $0x0,0x10(%rsp)
    43a9:	e9 62 f0 ff ff       	jmp    3410 <__cxa_finalize@plt+0x1110>
    43ae:	66 90                	xchg   %ax,%ax
    43b0:	41 57                	push   %r15
    43b2:	41 56                	push   %r14
    43b4:	41 55                	push   %r13
    43b6:	41 54                	push   %r12
    43b8:	49 89 cc             	mov    %rcx,%r12
    43bb:	55                   	push   %rbp
    43bc:	53                   	push   %rbx
    43bd:	48 63 df             	movslq %edi,%rbx
    43c0:	48 83 ec 38          	sub    $0x38,%rsp
    43c4:	48 89 34 24          	mov    %rsi,(%rsp)
    43c8:	48 89 54 24 08       	mov    %rdx,0x8(%rsp)
    43cd:	64 48 8b 04 25 28 00 	mov    %fs:0x28,%rax
    43d4:	00 00 
    43d6:	48 89 44 24 28       	mov    %rax,0x28(%rsp)
    43db:	31 c0                	xor    %eax,%eax
    43dd:	e8 6e dc ff ff       	call   2050 <__errno_location@plt>
    43e2:	4c 8b 35 f7 5d 00 00 	mov    0x5df7(%rip),%r14        # a1e0 <__cxa_finalize@plt+0x7ee0>
    43e9:	44 8b 38             	mov    (%rax),%r15d
    43ec:	81 fb fe ff ff 7f    	cmp    $0x7ffffffe,%ebx
    43f2:	0f 87 1d df ff ff    	ja     2315 <__cxa_finalize@plt+0x15>
    43f8:	48 89 c5             	mov    %rax,%rbp
    43fb:	8b 05 d7 5d 00 00    	mov    0x5dd7(%rip),%eax        # a1d8 <__cxa_finalize@plt+0x7ed8>
    4401:	39 d8                	cmp    %ebx,%eax
    4403:	7f 70                	jg     4475 <__cxa_finalize@plt+0x2175>
    4405:	48 63 d0             	movslq %eax,%rdx
    4408:	48 89 54 24 20       	mov    %rdx,0x20(%rsp)
    440d:	89 da                	mov    %ebx,%edx
    440f:	29 c2                	sub    %eax,%edx
    4411:	48 8d 05 d8 5d 00 00 	lea    0x5dd8(%rip),%rax        # a1f0 <__cxa_finalize@plt+0x7ef0>
    4418:	83 c2 01             	add    $0x1,%edx
    441b:	48 63 d2             	movslq %edx,%rdx
    441e:	49 39 c6             	cmp    %rax,%r14
    4421:	0f 84 41 01 00 00    	je     4568 <__cxa_finalize@plt+0x2268>
    4427:	4c 89 f7             	mov    %r14,%rdi
    442a:	48 8d 74 24 20       	lea    0x20(%rsp),%rsi
    442f:	41 b8 10 00 00 00    	mov    $0x10,%r8d
    4435:	b9 ff ff ff 7f       	mov    $0x7fffffff,%ecx
    443a:	e8 21 16 00 00       	call   5a60 <__cxa_finalize@plt+0x3760>
    443f:	48 89 05 9a 5d 00 00 	mov    %rax,0x5d9a(%rip)        # a1e0 <__cxa_finalize@plt+0x7ee0>
    4446:	49 89 c6             	mov    %rax,%r14
    4449:	48 63 3d 88 5d 00 00 	movslq 0x5d88(%rip),%rdi        # a1d8 <__cxa_finalize@plt+0x7ed8>
    4450:	48 8b 54 24 20       	mov    0x20(%rsp),%rdx
    4455:	31 f6                	xor    %esi,%esi
    4457:	48 29 fa             	sub    %rdi,%rdx
    445a:	48 c1 e7 04          	shl    $0x4,%rdi
    445e:	48 c1 e2 04          	shl    $0x4,%rdx
    4462:	4c 01 f7             	add    %r14,%rdi
    4465:	e8 06 dd ff ff       	call   2170 <memset@plt>
    446a:	48 8b 44 24 20       	mov    0x20(%rsp),%rax
    446f:	89 05 63 5d 00 00    	mov    %eax,0x5d63(%rip)        # a1d8 <__cxa_finalize@plt+0x7ed8>
    4475:	41 8b 44 24 04       	mov    0x4(%r12),%eax
    447a:	48 c1 e3 04          	shl    $0x4,%rbx
    447e:	48 83 ec 08          	sub    $0x8,%rsp
    4482:	45 8b 04 24          	mov    (%r12),%r8d
    4486:	4d 8d 2c 1e          	lea    (%r14,%rbx,1),%r13
    448a:	49 8d 5c 24 08       	lea    0x8(%r12),%rbx
    448f:	83 c8 01             	or     $0x1,%eax
    4492:	49 8b 75 00          	mov    0x0(%r13),%rsi
    4496:	4d 8b 75 08          	mov    0x8(%r13),%r14
    449a:	89 44 24 24          	mov    %eax,0x24(%rsp)
    449e:	41 89 c1             	mov    %eax,%r9d
    44a1:	41 ff 74 24 30       	push   0x30(%r12)
    44a6:	4c 89 f7             	mov    %r14,%rdi
    44a9:	41 ff 74 24 28       	push   0x28(%r12)
    44ae:	53                   	push   %rbx
    44af:	48 8b 4c 24 28       	mov    0x28(%rsp),%rcx
    44b4:	48 8b 54 24 20       	mov    0x20(%rsp),%rdx
    44b9:	48 89 74 24 30       	mov    %rsi,0x30(%rsp)
    44be:	e8 ed e8 ff ff       	call   2db0 <__cxa_finalize@plt+0xab0>
    44c3:	48 8b 74 24 30       	mov    0x30(%rsp),%rsi
    44c8:	48 83 c4 20          	add    $0x20,%rsp
    44cc:	48 39 f0             	cmp    %rsi,%rax
    44cf:	72 6d                	jb     453e <__cxa_finalize@plt+0x223e>
    44d1:	48 8d 70 01          	lea    0x1(%rax),%rsi
    44d5:	48 8d 05 a4 5d 00 00 	lea    0x5da4(%rip),%rax        # a280 <stderr@GLIBC_2.2.5+0x40>
    44dc:	49 89 75 00          	mov    %rsi,0x0(%r13)
    44e0:	49 39 c6             	cmp    %rax,%r14
    44e3:	74 12                	je     44f7 <__cxa_finalize@plt+0x21f7>
    44e5:	4c 89 f7             	mov    %r14,%rdi
    44e8:	48 89 74 24 10       	mov    %rsi,0x10(%rsp)
    44ed:	e8 3e db ff ff       	call   2030 <free@plt>
    44f2:	48 8b 74 24 10       	mov    0x10(%rsp),%rsi
    44f7:	48 89 f7             	mov    %rsi,%rdi
    44fa:	48 89 74 24 10       	mov    %rsi,0x10(%rsp)
    44ff:	e8 dc 12 00 00       	call   57e0 <__cxa_finalize@plt+0x34e0>
    4504:	48 83 ec 08          	sub    $0x8,%rsp
    4508:	45 8b 04 24          	mov    (%r12),%r8d
    450c:	49 89 45 08          	mov    %rax,0x8(%r13)
    4510:	48 89 c7             	mov    %rax,%rdi
    4513:	49 89 c6             	mov    %rax,%r14
    4516:	41 ff 74 24 30       	push   0x30(%r12)
    451b:	41 ff 74 24 28       	push   0x28(%r12)
    4520:	53                   	push   %rbx
    4521:	44 8b 4c 24 3c       	mov    0x3c(%rsp),%r9d
    4526:	48 8b 4c 24 28       	mov    0x28(%rsp),%rcx
    452b:	48 8b 54 24 20       	mov    0x20(%rsp),%rdx
    4530:	48 8b 74 24 30       	mov    0x30(%rsp),%rsi
    4535:	e8 76 e8 ff ff       	call   2db0 <__cxa_finalize@plt+0xab0>
    453a:	48 83 c4 20          	add    $0x20,%rsp
    453e:	44 89 7d 00          	mov    %r15d,0x0(%rbp)
    4542:	48 8b 44 24 28       	mov    0x28(%rsp),%rax
    4547:	64 48 2b 04 25 28 00 	sub    %fs:0x28,%rax
    454e:	00 00 
    4550:	75 47                	jne    4599 <__cxa_finalize@plt+0x2299>
    4552:	48 83 c4 38          	add    $0x38,%rsp
    4556:	4c 89 f0             	mov    %r14,%rax
    4559:	5b                   	pop    %rbx
    455a:	5d                   	pop    %rbp
    455b:	41 5c                	pop    %r12
    455d:	41 5d                	pop    %r13
    455f:	41 5e                	pop    %r14
    4561:	41 5f                	pop    %r15
    4563:	c3                   	ret
    4564:	0f 1f 40 00          	nopl   0x0(%rax)
    4568:	48 8d 74 24 20       	lea    0x20(%rsp),%rsi
    456d:	41 b8 10 00 00 00    	mov    $0x10,%r8d
    4573:	b9 ff ff ff 7f       	mov    $0x7fffffff,%ecx
    4578:	31 ff                	xor    %edi,%edi
    457a:	e8 e1 14 00 00       	call   5a60 <__cxa_finalize@plt+0x3760>
    457f:	66 0f 6f 05 69 5c 00 	movdqa 0x5c69(%rip),%xmm0        # a1f0 <__cxa_finalize@plt+0x7ef0>
    4586:	00 
    4587:	48 89 05 52 5c 00 00 	mov    %rax,0x5c52(%rip)        # a1e0 <__cxa_finalize@plt+0x7ee0>
    458e:	49 89 c6             	mov    %rax,%r14
    4591:	0f 11 00             	movups %xmm0,(%rax)
    4594:	e9 b0 fe ff ff       	jmp    4449 <__cxa_finalize@plt+0x2149>
    4599:	e8 82 db ff ff       	call   2120 <__stack_chk_fail@plt>
    459e:	66 90                	xchg   %ax,%ax
    45a0:	41 54                	push   %r12
    45a2:	55                   	push   %rbp
    45a3:	53                   	push   %rbx
    45a4:	48 89 fb             	mov    %rdi,%rbx
    45a7:	e8 a4 da ff ff       	call   2050 <__errno_location@plt>
    45ac:	48 85 db             	test   %rbx,%rbx
    45af:	be 38 00 00 00       	mov    $0x38,%esi
    45b4:	44 8b 20             	mov    (%rax),%r12d
    45b7:	48 89 c5             	mov    %rax,%rbp
    45ba:	48 8d 05 bf 5d 00 00 	lea    0x5dbf(%rip),%rax        # a380 <stderr@GLIBC_2.2.5+0x140>
    45c1:	48 0f 44 d8          	cmove  %rax,%rbx
    45c5:	48 89 df             	mov    %rbx,%rdi
    45c8:	e8 03 16 00 00       	call   5bd0 <__cxa_finalize@plt+0x38d0>
    45cd:	44 89 65 00          	mov    %r12d,0x0(%rbp)
    45d1:	5b                   	pop    %rbx
    45d2:	5d                   	pop    %rbp
    45d3:	41 5c                	pop    %r12
    45d5:	c3                   	ret
    45d6:	66 2e 0f 1f 84 00 00 	cs nopw 0x0(%rax,%rax,1)
    45dd:	00 00 00 
    45e0:	48 85 ff             	test   %rdi,%rdi
    45e3:	48 8d 05 96 5d 00 00 	lea    0x5d96(%rip),%rax        # a380 <stderr@GLIBC_2.2.5+0x140>
    45ea:	48 0f 44 f8          	cmove  %rax,%rdi
    45ee:	8b 07                	mov    (%rdi),%eax
    45f0:	c3                   	ret
    45f1:	66 66 2e 0f 1f 84 00 	data16 cs nopw 0x0(%rax,%rax,1)
    45f8:	00 00 00 00 
    45fc:	0f 1f 40 00          	nopl   0x0(%rax)
    4600:	48 85 ff             	test   %rdi,%rdi
    4603:	48 8d 05 76 5d 00 00 	lea    0x5d76(%rip),%rax        # a380 <stderr@GLIBC_2.2.5+0x140>
    460a:	48 0f 44 f8          	cmove  %rax,%rdi
    460e:	89 37                	mov    %esi,(%rdi)
    4610:	c3                   	ret
    4611:	66 66 2e 0f 1f 84 00 	data16 cs nopw 0x0(%rax,%rax,1)
    4618:	00 00 00 00 
    461c:	0f 1f 40 00          	nopl   0x0(%rax)
    4620:	48 85 ff             	test   %rdi,%rdi
    4623:	48 8d 05 56 5d 00 00 	lea    0x5d56(%rip),%rax        # a380 <stderr@GLIBC_2.2.5+0x140>
    462a:	89 f1                	mov    %esi,%ecx
    462c:	48 0f 44 f8          	cmove  %rax,%rdi
    4630:	89 f0                	mov    %esi,%eax
    4632:	83 e1 1f             	and    $0x1f,%ecx
    4635:	83 e2 01             	and    $0x1,%edx
    4638:	c0 e8 05             	shr    $0x5,%al
    463b:	0f b6 c0             	movzbl %al,%eax
    463e:	48 8d 74 87 08       	lea    0x8(%rdi,%rax,4),%rsi
    4643:	8b 3e                	mov    (%rsi),%edi
    4645:	89 f8                	mov    %edi,%eax
    4647:	d3 e8                	shr    %cl,%eax
    4649:	83 e0 01             	and    $0x1,%eax
    464c:	31 c2                	xor    %eax,%edx
    464e:	d3 e2                	shl    %cl,%edx
    4650:	31 fa                	xor    %edi,%edx
    4652:	89 16                	mov    %edx,(%rsi)
    4654:	c3                   	ret
    4655:	66 66 2e 0f 1f 84 00 	data16 cs nopw 0x0(%rax,%rax,1)
    465c:	00 00 00 00 
    4660:	48 85 ff             	test   %rdi,%rdi
    4663:	48 8d 05 16 5d 00 00 	lea    0x5d16(%rip),%rax        # a380 <stderr@GLIBC_2.2.5+0x140>
    466a:	48 0f 44 f8          	cmove  %rax,%rdi
    466e:	8b 47 04             	mov    0x4(%rdi),%eax
    4671:	89 77 04             	mov    %esi,0x4(%rdi)
    4674:	c3                   	ret
    4675:	66 66 2e 0f 1f 84 00 	data16 cs nopw 0x0(%rax,%rax,1)
    467c:	00 00 00 00 
    4680:	48 85 ff             	test   %rdi,%rdi
    4683:	48 8d 05 f6 5c 00 00 	lea    0x5cf6(%rip),%rax        # a380 <stderr@GLIBC_2.2.5+0x140>
    468a:	48 0f 44 f8          	cmove  %rax,%rdi
    468e:	c7 07 0a 00 00 00    	movl   $0xa,(%rdi)
    4694:	48 85 f6             	test   %rsi,%rsi
    4697:	0f 84 7d dc ff ff    	je     231a <__cxa_finalize@plt+0x1a>
    469d:	48 85 d2             	test   %rdx,%rdx
    46a0:	0f 84 74 dc ff ff    	je     231a <__cxa_finalize@plt+0x1a>
    46a6:	48 89 77 28          	mov    %rsi,0x28(%rdi)
    46aa:	48 89 57 30          	mov    %rdx,0x30(%rdi)
    46ae:	c3                   	ret
    46af:	90                   	nop
    46b0:	41 57                	push   %r15
    46b2:	48 8d 05 c7 5c 00 00 	lea    0x5cc7(%rip),%rax        # a380 <stderr@GLIBC_2.2.5+0x140>
    46b9:	41 56                	push   %r14
    46bb:	49 89 ce             	mov    %rcx,%r14
    46be:	41 55                	push   %r13
    46c0:	49 89 d5             	mov    %rdx,%r13
    46c3:	41 54                	push   %r12
    46c5:	49 89 f4             	mov    %rsi,%r12
    46c8:	55                   	push   %rbp
    46c9:	53                   	push   %rbx
    46ca:	4c 89 c3             	mov    %r8,%rbx
    46cd:	48 83 ec 18          	sub    $0x18,%rsp
    46d1:	4d 85 c0             	test   %r8,%r8
    46d4:	48 0f 44 d8          	cmove  %rax,%rbx
    46d8:	48 89 7c 24 08       	mov    %rdi,0x8(%rsp)
    46dd:	e8 6e d9 ff ff       	call   2050 <__errno_location@plt>
    46e2:	48 83 ec 08          	sub    $0x8,%rsp
    46e6:	4c 89 f1             	mov    %r14,%rcx
    46e9:	4c 89 ea             	mov    %r13,%rdx
    46ec:	8b 28                	mov    (%rax),%ebp
    46ee:	44 8b 4b 04          	mov    0x4(%rbx),%r9d
    46f2:	48 83 c3 08          	add    $0x8,%rbx
    46f6:	49 89 c7             	mov    %rax,%r15
    46f9:	44 8b 43 f8          	mov    -0x8(%rbx),%r8d
    46fd:	ff 73 28             	push   0x28(%rbx)
    4700:	4c 89 e6             	mov    %r12,%rsi
    4703:	ff 73 20             	push   0x20(%rbx)
    4706:	53                   	push   %rbx
    4707:	48 8b 7c 24 28       	mov    0x28(%rsp),%rdi
    470c:	e8 9f e6 ff ff       	call   2db0 <__cxa_finalize@plt+0xab0>
    4711:	41 89 2f             	mov    %ebp,(%r15)
    4714:	48 83 c4 38          	add    $0x38,%rsp
    4718:	5b                   	pop    %rbx
    4719:	5d                   	pop    %rbp
    471a:	41 5c                	pop    %r12
    471c:	41 5d                	pop    %r13
    471e:	41 5e                	pop    %r14
    4720:	41 5f                	pop    %r15
    4722:	c3                   	ret
    4723:	66 66 2e 0f 1f 84 00 	data16 cs nopw 0x0(%rax,%rax,1)
    472a:	00 00 00 00 
    472e:	66 90                	xchg   %ax,%ax
    4730:	41 57                	push   %r15
    4732:	48 8d 05 47 5c 00 00 	lea    0x5c47(%rip),%rax        # a380 <stderr@GLIBC_2.2.5+0x140>
    4739:	41 56                	push   %r14
    473b:	49 89 f6             	mov    %rsi,%r14
    473e:	41 55                	push   %r13
    4740:	49 89 fd             	mov    %rdi,%r13
    4743:	41 54                	push   %r12
    4745:	55                   	push   %rbp
    4746:	48 89 d5             	mov    %rdx,%rbp
    4749:	53                   	push   %rbx
    474a:	48 89 cb             	mov    %rcx,%rbx
    474d:	48 83 ec 28          	sub    $0x28,%rsp
    4751:	48 85 c9             	test   %rcx,%rcx
    4754:	48 0f 44 d8          	cmove  %rax,%rbx
    4758:	e8 f3 d8 ff ff       	call   2050 <__errno_location@plt>
    475d:	45 31 c9             	xor    %r9d,%r9d
    4760:	48 85 ed             	test   %rbp,%rbp
    4763:	4c 89 f1             	mov    %r14,%rcx
    4766:	44 8b 18             	mov    (%rax),%r11d
    4769:	41 0f 94 c1          	sete   %r9b
    476d:	4c 8d 53 08          	lea    0x8(%rbx),%r10
    4771:	48 83 ec 08          	sub    $0x8,%rsp
    4775:	44 0b 4b 04          	or     0x4(%rbx),%r9d
    4779:	44 8b 03             	mov    (%rbx),%r8d
    477c:	4c 89 ea             	mov    %r13,%rdx
    477f:	31 f6                	xor    %esi,%esi
    4781:	44 89 5c 24 24       	mov    %r11d,0x24(%rsp)
    4786:	31 ff                	xor    %edi,%edi
    4788:	49 89 c4             	mov    %rax,%r12
    478b:	ff 73 30             	push   0x30(%rbx)
    478e:	ff 73 28             	push   0x28(%rbx)
    4791:	41 52                	push   %r10
    4793:	4c 89 54 24 30       	mov    %r10,0x30(%rsp)
    4798:	44 89 4c 24 38       	mov    %r9d,0x38(%rsp)
    479d:	e8 0e e6 ff ff       	call   2db0 <__cxa_finalize@plt+0xab0>
    47a2:	48 83 c4 20          	add    $0x20,%rsp
    47a6:	48 8d 70 01          	lea    0x1(%rax),%rsi
    47aa:	49 89 c7             	mov    %rax,%r15
    47ad:	48 89 f7             	mov    %rsi,%rdi
    47b0:	48 89 74 24 08       	mov    %rsi,0x8(%rsp)
    47b5:	e8 26 10 00 00       	call   57e0 <__cxa_finalize@plt+0x34e0>
    47ba:	48 83 ec 08          	sub    $0x8,%rsp
    47be:	44 8b 03             	mov    (%rbx),%r8d
    47c1:	ff 73 30             	push   0x30(%rbx)
    47c4:	ff 73 28             	push   0x28(%rbx)
    47c7:	48 89 c7             	mov    %rax,%rdi
    47ca:	4c 89 f1             	mov    %r14,%rcx
    47cd:	4c 89 ea             	mov    %r13,%rdx
    47d0:	4c 8b 54 24 28       	mov    0x28(%rsp),%r10
    47d5:	41 52                	push   %r10
    47d7:	48 8b 74 24 28       	mov    0x28(%rsp),%rsi
    47dc:	44 8b 4c 24 38       	mov    0x38(%rsp),%r9d
    47e1:	48 89 44 24 28       	mov    %rax,0x28(%rsp)
    47e6:	e8 c5 e5 ff ff       	call   2db0 <__cxa_finalize@plt+0xab0>
    47eb:	44 8b 5c 24 3c       	mov    0x3c(%rsp),%r11d
    47f0:	48 83 c4 20          	add    $0x20,%rsp
    47f4:	48 85 ed             	test   %rbp,%rbp
    47f7:	48 8b 7c 24 08       	mov    0x8(%rsp),%rdi
    47fc:	45 89 1c 24          	mov    %r11d,(%r12)
    4800:	74 04                	je     4806 <__cxa_finalize@plt+0x2506>
    4802:	4c 89 7d 00          	mov    %r15,0x0(%rbp)
    4806:	48 83 c4 28          	add    $0x28,%rsp
    480a:	48 89 f8             	mov    %rdi,%rax
    480d:	5b                   	pop    %rbx
    480e:	5d                   	pop    %rbp
    480f:	41 5c                	pop    %r12
    4811:	41 5d                	pop    %r13
    4813:	41 5e                	pop    %r14
    4815:	41 5f                	pop    %r15
    4817:	c3                   	ret
    4818:	0f 1f 84 00 00 00 00 	nopl   0x0(%rax,%rax,1)
    481f:	00 
    4820:	48 89 d1             	mov    %rdx,%rcx
    4823:	31 d2                	xor    %edx,%edx
    4825:	e9 06 ff ff ff       	jmp    4730 <__cxa_finalize@plt+0x2430>
    482a:	66 0f 1f 44 00 00    	nopw   0x0(%rax,%rax,1)
    4830:	8b 05 a2 59 00 00    	mov    0x59a2(%rip),%eax        # a1d8 <__cxa_finalize@plt+0x7ed8>
    4836:	41 54                	push   %r12
    4838:	4c 8b 25 a1 59 00 00 	mov    0x59a1(%rip),%r12        # a1e0 <__cxa_finalize@plt+0x7ee0>
    483f:	55                   	push   %rbp
    4840:	53                   	push   %rbx
    4841:	83 f8 01             	cmp    $0x1,%eax
    4844:	7e 2b                	jle    4871 <__cxa_finalize@plt+0x2571>
    4846:	83 e8 02             	sub    $0x2,%eax
    4849:	49 8d 5c 24 18       	lea    0x18(%r12),%rbx
    484e:	48 c1 e0 04          	shl    $0x4,%rax
    4852:	49 8d 6c 04 28       	lea    0x28(%r12,%rax,1),%rbp
    4857:	66 0f 1f 84 00 00 00 	nopw   0x0(%rax,%rax,1)
    485e:	00 00 
    4860:	48 8b 3b             	mov    (%rbx),%rdi
    4863:	48 83 c3 10          	add    $0x10,%rbx
    4867:	e8 c4 d7 ff ff       	call   2030 <free@plt>
    486c:	48 39 eb             	cmp    %rbp,%rbx
    486f:	75 ef                	jne    4860 <__cxa_finalize@plt+0x2560>
    4871:	49 8b 7c 24 08       	mov    0x8(%r12),%rdi
    4876:	48 8d 1d 03 5a 00 00 	lea    0x5a03(%rip),%rbx        # a280 <stderr@GLIBC_2.2.5+0x40>
    487d:	48 39 df             	cmp    %rbx,%rdi
    4880:	74 17                	je     4899 <__cxa_finalize@plt+0x2599>
    4882:	e8 a9 d7 ff ff       	call   2030 <free@plt>
    4887:	48 89 1d 6a 59 00 00 	mov    %rbx,0x596a(%rip)        # a1f8 <__cxa_finalize@plt+0x7ef8>
    488e:	48 c7 05 57 59 00 00 	movq   $0x100,0x5957(%rip)        # a1f0 <__cxa_finalize@plt+0x7ef0>
    4895:	00 01 00 00 
    4899:	48 8d 1d 50 59 00 00 	lea    0x5950(%rip),%rbx        # a1f0 <__cxa_finalize@plt+0x7ef0>
    48a0:	49 39 dc             	cmp    %rbx,%r12
    48a3:	74 0f                	je     48b4 <__cxa_finalize@plt+0x25b4>
    48a5:	4c 89 e7             	mov    %r12,%rdi
    48a8:	e8 83 d7 ff ff       	call   2030 <free@plt>
    48ad:	48 89 1d 2c 59 00 00 	mov    %rbx,0x592c(%rip)        # a1e0 <__cxa_finalize@plt+0x7ee0>
    48b4:	c7 05 1a 59 00 00 01 	movl   $0x1,0x591a(%rip)        # a1d8 <__cxa_finalize@plt+0x7ed8>
    48bb:	00 00 00 
    48be:	5b                   	pop    %rbx
    48bf:	5d                   	pop    %rbp
    48c0:	41 5c                	pop    %r12
    48c2:	c3                   	ret
    48c3:	66 66 2e 0f 1f 84 00 	data16 cs nopw 0x0(%rax,%rax,1)
    48ca:	00 00 00 00 
    48ce:	66 90                	xchg   %ax,%ax
    48d0:	48 8d 0d a9 5a 00 00 	lea    0x5aa9(%rip),%rcx        # a380 <stderr@GLIBC_2.2.5+0x140>
    48d7:	48 c7 c2 ff ff ff ff 	mov    $0xffffffffffffffff,%rdx
    48de:	e9 cd fa ff ff       	jmp    43b0 <__cxa_finalize@plt+0x20b0>
    48e3:	66 66 2e 0f 1f 84 00 	data16 cs nopw 0x0(%rax,%rax,1)
    48ea:	00 00 00 00 
    48ee:	66 90                	xchg   %ax,%ax
    48f0:	48 8d 0d 89 5a 00 00 	lea    0x5a89(%rip),%rcx        # a380 <stderr@GLIBC_2.2.5+0x140>
    48f7:	e9 b4 fa ff ff       	jmp    43b0 <__cxa_finalize@plt+0x20b0>
    48fc:	0f 1f 40 00          	nopl   0x0(%rax)
    4900:	48 89 fe             	mov    %rdi,%rsi
    4903:	48 8d 0d 76 5a 00 00 	lea    0x5a76(%rip),%rcx        # a380 <stderr@GLIBC_2.2.5+0x140>
    490a:	48 c7 c2 ff ff ff ff 	mov    $0xffffffffffffffff,%rdx
    4911:	31 ff                	xor    %edi,%edi
    4913:	e9 98 fa ff ff       	jmp    43b0 <__cxa_finalize@plt+0x20b0>
    4918:	0f 1f 84 00 00 00 00 	nopl   0x0(%rax,%rax,1)
    491f:	00 
    4920:	48 89 f2             	mov    %rsi,%rdx
    4923:	48 8d 0d 56 5a 00 00 	lea    0x5a56(%rip),%rcx        # a380 <stderr@GLIBC_2.2.5+0x140>
    492a:	48 89 fe             	mov    %rdi,%rsi
    492d:	31 ff                	xor    %edi,%edi
    492f:	e9 7c fa ff ff       	jmp    43b0 <__cxa_finalize@plt+0x20b0>
    4934:	66 66 2e 0f 1f 84 00 	data16 cs nopw 0x0(%rax,%rax,1)
    493b:	00 00 00 00 
    493f:	90                   	nop
    4940:	48 83 ec 48          	sub    $0x48,%rsp
    4944:	89 f0                	mov    %esi,%eax
    4946:	48 89 d6             	mov    %rdx,%rsi
    4949:	64 48 8b 14 25 28 00 	mov    %fs:0x28,%rdx
    4950:	00 00 
    4952:	48 89 54 24 38       	mov    %rdx,0x38(%rsp)
    4957:	31 d2                	xor    %edx,%edx
    4959:	83 f8 0a             	cmp    $0xa,%eax
    495c:	0f 84 be d9 ff ff    	je     2320 <__cxa_finalize@plt+0x20>
    4962:	66 0f ef c0          	pxor   %xmm0,%xmm0
    4966:	48 c7 c2 ff ff ff ff 	mov    $0xffffffffffffffff,%rdx
    496d:	48 89 e1             	mov    %rsp,%rcx
    4970:	89 04 24             	mov    %eax,(%rsp)
    4973:	0f 11 44 24 08       	movups %xmm0,0x8(%rsp)
    4978:	0f 11 44 24 18       	movups %xmm0,0x18(%rsp)
    497d:	66 0f ef c0          	pxor   %xmm0,%xmm0
    4981:	c7 44 24 04 00 00 00 	movl   $0x0,0x4(%rsp)
    4988:	00 
    4989:	0f 11 44 24 28       	movups %xmm0,0x28(%rsp)
    498e:	e8 1d fa ff ff       	call   43b0 <__cxa_finalize@plt+0x20b0>
    4993:	48 8b 54 24 38       	mov    0x38(%rsp),%rdx
    4998:	64 48 2b 14 25 28 00 	sub    %fs:0x28,%rdx
    499f:	00 00 
    49a1:	75 05                	jne    49a8 <__cxa_finalize@plt+0x26a8>
    49a3:	48 83 c4 48          	add    $0x48,%rsp
    49a7:	c3                   	ret
    49a8:	e8 73 d7 ff ff       	call   2120 <__stack_chk_fail@plt>
    49ad:	0f 1f 00             	nopl   (%rax)
    49b0:	48 83 ec 48          	sub    $0x48,%rsp
    49b4:	89 f0                	mov    %esi,%eax
    49b6:	48 89 d6             	mov    %rdx,%rsi
    49b9:	48 89 ca             	mov    %rcx,%rdx
    49bc:	64 48 8b 0c 25 28 00 	mov    %fs:0x28,%rcx
    49c3:	00 00 
    49c5:	48 89 4c 24 38       	mov    %rcx,0x38(%rsp)
    49ca:	31 c9                	xor    %ecx,%ecx
    49cc:	83 f8 0a             	cmp    $0xa,%eax
    49cf:	0f 84 50 d9 ff ff    	je     2325 <__cxa_finalize@plt+0x25>
    49d5:	66 0f ef c0          	pxor   %xmm0,%xmm0
    49d9:	48 89 e1             	mov    %rsp,%rcx
    49dc:	89 04 24             	mov    %eax,(%rsp)
    49df:	0f 11 44 24 08       	movups %xmm0,0x8(%rsp)
    49e4:	0f 11 44 24 18       	movups %xmm0,0x18(%rsp)
    49e9:	66 0f ef c0          	pxor   %xmm0,%xmm0
    49ed:	c7 44 24 04 00 00 00 	movl   $0x0,0x4(%rsp)
    49f4:	00 
    49f5:	0f 11 44 24 28       	movups %xmm0,0x28(%rsp)
    49fa:	e8 b1 f9 ff ff       	call   43b0 <__cxa_finalize@plt+0x20b0>
    49ff:	48 8b 54 24 38       	mov    0x38(%rsp),%rdx
    4a04:	64 48 2b 14 25 28 00 	sub    %fs:0x28,%rdx
    4a0b:	00 00 
    4a0d:	75 05                	jne    4a14 <__cxa_finalize@plt+0x2714>
    4a0f:	48 83 c4 48          	add    $0x48,%rsp
    4a13:	c3                   	ret
    4a14:	e8 07 d7 ff ff       	call   2120 <__stack_chk_fail@plt>
    4a19:	0f 1f 80 00 00 00 00 	nopl   0x0(%rax)
    4a20:	48 83 ec 48          	sub    $0x48,%rsp
    4a24:	64 48 8b 04 25 28 00 	mov    %fs:0x28,%rax
    4a2b:	00 00 
    4a2d:	48 89 44 24 38       	mov    %rax,0x38(%rsp)
    4a32:	31 c0                	xor    %eax,%eax
    4a34:	83 ff 0a             	cmp    $0xa,%edi
    4a37:	0f 84 ed d8 ff ff    	je     232a <__cxa_finalize@plt+0x2a>
    4a3d:	66 0f ef c0          	pxor   %xmm0,%xmm0
    4a41:	89 3c 24             	mov    %edi,(%rsp)
    4a44:	48 c7 c2 ff ff ff ff 	mov    $0xffffffffffffffff,%rdx
    4a4b:	31 ff                	xor    %edi,%edi
    4a4d:	0f 11 44 24 08       	movups %xmm0,0x8(%rsp)
    4a52:	48 89 e1             	mov    %rsp,%rcx
    4a55:	0f 11 44 24 18       	movups %xmm0,0x18(%rsp)
    4a5a:	66 0f ef c0          	pxor   %xmm0,%xmm0
    4a5e:	c7 44 24 04 00 00 00 	movl   $0x0,0x4(%rsp)
    4a65:	00 
    4a66:	0f 11 44 24 28       	movups %xmm0,0x28(%rsp)
    4a6b:	e8 40 f9 ff ff       	call   43b0 <__cxa_finalize@plt+0x20b0>
    4a70:	48 8b 54 24 38       	mov    0x38(%rsp),%rdx
    4a75:	64 48 2b 14 25 28 00 	sub    %fs:0x28,%rdx
    4a7c:	00 00 
    4a7e:	75 05                	jne    4a85 <__cxa_finalize@plt+0x2785>
    4a80:	48 83 c4 48          	add    $0x48,%rsp
    4a84:	c3                   	ret
    4a85:	e8 96 d6 ff ff       	call   2120 <__stack_chk_fail@plt>
    4a8a:	66 0f 1f 44 00 00    	nopw   0x0(%rax,%rax,1)
    4a90:	48 83 ec 48          	sub    $0x48,%rsp
    4a94:	64 48 8b 04 25 28 00 	mov    %fs:0x28,%rax
    4a9b:	00 00 
    4a9d:	48 89 44 24 38       	mov    %rax,0x38(%rsp)
    4aa2:	31 c0                	xor    %eax,%eax
    4aa4:	83 ff 0a             	cmp    $0xa,%edi
    4aa7:	0f 84 82 d8 ff ff    	je     232f <__cxa_finalize@plt+0x2f>
    4aad:	66 0f ef c0          	pxor   %xmm0,%xmm0
    4ab1:	89 3c 24             	mov    %edi,(%rsp)
    4ab4:	48 89 e1             	mov    %rsp,%rcx
    4ab7:	31 ff                	xor    %edi,%edi
    4ab9:	0f 11 44 24 08       	movups %xmm0,0x8(%rsp)
    4abe:	0f 11 44 24 18       	movups %xmm0,0x18(%rsp)
    4ac3:	66 0f ef c0          	pxor   %xmm0,%xmm0
    4ac7:	c7 44 24 04 00 00 00 	movl   $0x0,0x4(%rsp)
    4ace:	00 
    4acf:	0f 11 44 24 28       	movups %xmm0,0x28(%rsp)
    4ad4:	e8 d7 f8 ff ff       	call   43b0 <__cxa_finalize@plt+0x20b0>
    4ad9:	48 8b 54 24 38       	mov    0x38(%rsp),%rdx
    4ade:	64 48 2b 14 25 28 00 	sub    %fs:0x28,%rdx
    4ae5:	00 00 
    4ae7:	75 05                	jne    4aee <__cxa_finalize@plt+0x27ee>
    4ae9:	48 83 c4 48          	add    $0x48,%rsp
    4aed:	c3                   	ret
    4aee:	e8 2d d6 ff ff       	call   2120 <__stack_chk_fail@plt>
    4af3:	66 66 2e 0f 1f 84 00 	data16 cs nopw 0x0(%rax,%rax,1)
    4afa:	00 00 00 00 
    4afe:	66 90                	xchg   %ax,%ax
    4b00:	48 83 ec 48          	sub    $0x48,%rsp
    4b04:	66 0f 6f 05 74 58 00 	movdqa 0x5874(%rip),%xmm0        # a380 <stderr@GLIBC_2.2.5+0x140>
    4b0b:	00 
    4b0c:	66 0f 6f 0d 7c 58 00 	movdqa 0x587c(%rip),%xmm1        # a390 <stderr@GLIBC_2.2.5+0x150>
    4b13:	00 
    4b14:	89 d1                	mov    %edx,%ecx
    4b16:	64 48 8b 04 25 28 00 	mov    %fs:0x28,%rax
    4b1d:	00 00 
    4b1f:	48 89 44 24 38       	mov    %rax,0x38(%rsp)
    4b24:	31 c0                	xor    %eax,%eax
    4b26:	48 8b 05 83 58 00 00 	mov    0x5883(%rip),%rax        # a3b0 <stderr@GLIBC_2.2.5+0x170>
    4b2d:	83 e1 1f             	and    $0x1f,%ecx
    4b30:	49 89 e1             	mov    %rsp,%r9
    4b33:	66 0f 6f 15 65 58 00 	movdqa 0x5865(%rip),%xmm2        # a3a0 <stderr@GLIBC_2.2.5+0x160>
    4b3a:	00 
    4b3b:	0f 29 04 24          	movaps %xmm0,(%rsp)
    4b3f:	48 89 44 24 30       	mov    %rax,0x30(%rsp)
    4b44:	89 d0                	mov    %edx,%eax
    4b46:	c0 e8 05             	shr    $0x5,%al
    4b49:	0f 29 4c 24 10       	movaps %xmm1,0x10(%rsp)
    4b4e:	0f b6 c0             	movzbl %al,%eax
    4b51:	0f 29 54 24 20       	movaps %xmm2,0x20(%rsp)
    4b56:	48 8d 54 84 08       	lea    0x8(%rsp,%rax,4),%rdx
    4b5b:	31 c0                	xor    %eax,%eax
    4b5d:	44 8b 02             	mov    (%rdx),%r8d
    4b60:	41 0f a3 c8          	bt     %ecx,%r8d
    4b64:	0f 93 c0             	setae  %al
    4b67:	d3 e0                	shl    %cl,%eax
    4b69:	4c 89 c9             	mov    %r9,%rcx
    4b6c:	44 31 c0             	xor    %r8d,%eax
    4b6f:	89 02                	mov    %eax,(%rdx)
    4b71:	48 89 f2             	mov    %rsi,%rdx
    4b74:	48 89 fe             	mov    %rdi,%rsi
    4b77:	31 ff                	xor    %edi,%edi
    4b79:	e8 32 f8 ff ff       	call   43b0 <__cxa_finalize@plt+0x20b0>
    4b7e:	48 8b 54 24 38       	mov    0x38(%rsp),%rdx
    4b83:	64 48 2b 14 25 28 00 	sub    %fs:0x28,%rdx
    4b8a:	00 00 
    4b8c:	75 05                	jne    4b93 <__cxa_finalize@plt+0x2893>
    4b8e:	48 83 c4 48          	add    $0x48,%rsp
    4b92:	c3                   	ret
    4b93:	e8 88 d5 ff ff       	call   2120 <__stack_chk_fail@plt>
    4b98:	0f 1f 84 00 00 00 00 	nopl   0x0(%rax,%rax,1)
    4b9f:	00 
    4ba0:	48 83 ec 48          	sub    $0x48,%rsp
    4ba4:	66 0f 6f 05 d4 57 00 	movdqa 0x57d4(%rip),%xmm0        # a380 <stderr@GLIBC_2.2.5+0x140>
    4bab:	00 
    4bac:	66 0f 6f 0d dc 57 00 	movdqa 0x57dc(%rip),%xmm1        # a390 <stderr@GLIBC_2.2.5+0x150>
    4bb3:	00 
    4bb4:	89 f1                	mov    %esi,%ecx
    4bb6:	64 48 8b 04 25 28 00 	mov    %fs:0x28,%rax
    4bbd:	00 00 
    4bbf:	48 89 44 24 38       	mov    %rax,0x38(%rsp)
    4bc4:	31 c0                	xor    %eax,%eax
    4bc6:	48 8b 05 e3 57 00 00 	mov    0x57e3(%rip),%rax        # a3b0 <stderr@GLIBC_2.2.5+0x170>
    4bcd:	83 e1 1f             	and    $0x1f,%ecx
    4bd0:	49 89 e0             	mov    %rsp,%r8
    4bd3:	66 0f 6f 15 c5 57 00 	movdqa 0x57c5(%rip),%xmm2        # a3a0 <stderr@GLIBC_2.2.5+0x160>
    4bda:	00 
    4bdb:	0f 29 04 24          	movaps %xmm0,(%rsp)
    4bdf:	48 89 44 24 30       	mov    %rax,0x30(%rsp)
    4be4:	89 f0                	mov    %esi,%eax
    4be6:	c0 e8 05             	shr    $0x5,%al
    4be9:	0f 29 4c 24 10       	movaps %xmm1,0x10(%rsp)
    4bee:	0f b6 c0             	movzbl %al,%eax
    4bf1:	0f 29 54 24 20       	movaps %xmm2,0x20(%rsp)
    4bf6:	48 8d 54 84 08       	lea    0x8(%rsp,%rax,4),%rdx
    4bfb:	31 c0                	xor    %eax,%eax
    4bfd:	8b 32                	mov    (%rdx),%esi
    4bff:	0f a3 ce             	bt     %ecx,%esi
    4c02:	0f 93 c0             	setae  %al
    4c05:	d3 e0                	shl    %cl,%eax
    4c07:	4c 89 c1             	mov    %r8,%rcx
    4c0a:	31 f0                	xor    %esi,%eax
    4c0c:	48 89 fe             	mov    %rdi,%rsi
    4c0f:	31 ff                	xor    %edi,%edi
    4c11:	89 02                	mov    %eax,(%rdx)
    4c13:	48 c7 c2 ff ff ff ff 	mov    $0xffffffffffffffff,%rdx
    4c1a:	e8 91 f7 ff ff       	call   43b0 <__cxa_finalize@plt+0x20b0>
    4c1f:	48 8b 54 24 38       	mov    0x38(%rsp),%rdx
    4c24:	64 48 2b 14 25 28 00 	sub    %fs:0x28,%rdx
    4c2b:	00 00 
    4c2d:	75 05                	jne    4c34 <__cxa_finalize@plt+0x2934>
    4c2f:	48 83 c4 48          	add    $0x48,%rsp
    4c33:	c3                   	ret
    4c34:	e8 e7 d4 ff ff       	call   2120 <__stack_chk_fail@plt>
    4c39:	0f 1f 80 00 00 00 00 	nopl   0x0(%rax)
    4c40:	48 83 ec 48          	sub    $0x48,%rsp
    4c44:	66 0f 6f 05 34 57 00 	movdqa 0x5734(%rip),%xmm0        # a380 <stderr@GLIBC_2.2.5+0x140>
    4c4b:	00 
    4c4c:	66 0f 6f 0d 3c 57 00 	movdqa 0x573c(%rip),%xmm1        # a390 <stderr@GLIBC_2.2.5+0x150>
    4c53:	00 
    4c54:	48 89 fe             	mov    %rdi,%rsi
    4c57:	64 48 8b 04 25 28 00 	mov    %fs:0x28,%rax
    4c5e:	00 00 
    4c60:	48 89 44 24 38       	mov    %rax,0x38(%rsp)
    4c65:	31 c0                	xor    %eax,%eax
    4c67:	48 8b 05 42 57 00 00 	mov    0x5742(%rip),%rax        # a3b0 <stderr@GLIBC_2.2.5+0x170>
    4c6e:	31 ff                	xor    %edi,%edi
    4c70:	48 89 e1             	mov    %rsp,%rcx
    4c73:	0f 29 04 24          	movaps %xmm0,(%rsp)
    4c77:	8b 54 24 0c          	mov    0xc(%rsp),%edx
    4c7b:	66 0f 6f 15 1d 57 00 	movdqa 0x571d(%rip),%xmm2        # a3a0 <stderr@GLIBC_2.2.5+0x160>
    4c82:	00 
    4c83:	48 89 44 24 30       	mov    %rax,0x30(%rsp)
    4c88:	89 d0                	mov    %edx,%eax
    4c8a:	0f 29 4c 24 10       	movaps %xmm1,0x10(%rsp)
    4c8f:	f7 d0                	not    %eax
    4c91:	0f 29 54 24 20       	movaps %xmm2,0x20(%rsp)
    4c96:	25 00 00 00 04       	and    $0x4000000,%eax
    4c9b:	31 d0                	xor    %edx,%eax
    4c9d:	48 c7 c2 ff ff ff ff 	mov    $0xffffffffffffffff,%rdx
    4ca4:	89 44 24 0c          	mov    %eax,0xc(%rsp)
    4ca8:	e8 03 f7 ff ff       	call   43b0 <__cxa_finalize@plt+0x20b0>
    4cad:	48 8b 54 24 38       	mov    0x38(%rsp),%rdx
    4cb2:	64 48 2b 14 25 28 00 	sub    %fs:0x28,%rdx
    4cb9:	00 00 
    4cbb:	75 05                	jne    4cc2 <__cxa_finalize@plt+0x29c2>
    4cbd:	48 83 c4 48          	add    $0x48,%rsp
    4cc1:	c3                   	ret
    4cc2:	e8 59 d4 ff ff       	call   2120 <__stack_chk_fail@plt>
    4cc7:	66 0f 1f 84 00 00 00 	nopw   0x0(%rax,%rax,1)
    4cce:	00 00 
    4cd0:	48 83 ec 48          	sub    $0x48,%rsp
    4cd4:	66 0f 6f 05 a4 56 00 	movdqa 0x56a4(%rip),%xmm0        # a380 <stderr@GLIBC_2.2.5+0x140>
    4cdb:	00 
    4cdc:	66 0f 6f 0d ac 56 00 	movdqa 0x56ac(%rip),%xmm1        # a390 <stderr@GLIBC_2.2.5+0x150>
    4ce3:	00 
    4ce4:	48 89 f2             	mov    %rsi,%rdx
    4ce7:	64 48 8b 04 25 28 00 	mov    %fs:0x28,%rax
    4cee:	00 00 
    4cf0:	48 89 44 24 38       	mov    %rax,0x38(%rsp)
    4cf5:	31 c0                	xor    %eax,%eax
    4cf7:	48 8b 05 b2 56 00 00 	mov    0x56b2(%rip),%rax        # a3b0 <stderr@GLIBC_2.2.5+0x170>
    4cfe:	66 0f 6f 15 9a 56 00 	movdqa 0x569a(%rip),%xmm2        # a3a0 <stderr@GLIBC_2.2.5+0x160>
    4d05:	00 
    4d06:	48 89 fe             	mov    %rdi,%rsi
    4d09:	0f 29 04 24          	movaps %xmm0,(%rsp)
    4d0d:	8b 4c 24 0c          	mov    0xc(%rsp),%ecx
    4d11:	31 ff                	xor    %edi,%edi
    4d13:	48 89 44 24 30       	mov    %rax,0x30(%rsp)
    4d18:	89 c8                	mov    %ecx,%eax
    4d1a:	0f 29 4c 24 10       	movaps %xmm1,0x10(%rsp)
    4d1f:	f7 d0                	not    %eax
    4d21:	0f 29 54 24 20       	movaps %xmm2,0x20(%rsp)
    4d26:	25 00 00 00 04       	and    $0x4000000,%eax
    4d2b:	31 c8                	xor    %ecx,%eax
    4d2d:	48 89 e1             	mov    %rsp,%rcx
    4d30:	89 44 24 0c          	mov    %eax,0xc(%rsp)
    4d34:	e8 77 f6 ff ff       	call   43b0 <__cxa_finalize@plt+0x20b0>
    4d39:	48 8b 54 24 38       	mov    0x38(%rsp),%rdx
    4d3e:	64 48 2b 14 25 28 00 	sub    %fs:0x28,%rdx
    4d45:	00 00 
    4d47:	75 05                	jne    4d4e <__cxa_finalize@plt+0x2a4e>
    4d49:	48 83 c4 48          	add    $0x48,%rsp
    4d4d:	c3                   	ret
    4d4e:	e8 cd d3 ff ff       	call   2120 <__stack_chk_fail@plt>
    4d53:	66 66 2e 0f 1f 84 00 	data16 cs nopw 0x0(%rax,%rax,1)
    4d5a:	00 00 00 00 
    4d5e:	66 90                	xchg   %ax,%ax
    4d60:	48 83 ec 48          	sub    $0x48,%rsp
    4d64:	89 f0                	mov    %esi,%eax
    4d66:	48 89 d6             	mov    %rdx,%rsi
    4d69:	64 48 8b 14 25 28 00 	mov    %fs:0x28,%rdx
    4d70:	00 00 
    4d72:	48 89 54 24 38       	mov    %rdx,0x38(%rsp)
    4d77:	31 d2                	xor    %edx,%edx
    4d79:	83 f8 0a             	cmp    $0xa,%eax
    4d7c:	0f 84 b2 d5 ff ff    	je     2334 <__cxa_finalize@plt+0x34>
    4d82:	66 0f ef c0          	pxor   %xmm0,%xmm0
    4d86:	48 c7 c2 ff ff ff ff 	mov    $0xffffffffffffffff,%rdx
    4d8d:	48 89 e1             	mov    %rsp,%rcx
    4d90:	89 04 24             	mov    %eax,(%rsp)
    4d93:	0f 11 44 24 28       	movups %xmm0,0x28(%rsp)
    4d98:	66 0f 6f 05 70 29 00 	movdqa 0x2970(%rip),%xmm0        # 7710 <__cxa_finalize@plt+0x5410>
    4d9f:	00 
    4da0:	c7 44 24 04 00 00 00 	movl   $0x0,0x4(%rsp)
    4da7:	00 
    4da8:	0f 11 44 24 08       	movups %xmm0,0x8(%rsp)
    4dad:	66 0f ef c0          	pxor   %xmm0,%xmm0
    4db1:	0f 11 44 24 18       	movups %xmm0,0x18(%rsp)
    4db6:	e8 f5 f5 ff ff       	call   43b0 <__cxa_finalize@plt+0x20b0>
    4dbb:	48 8b 54 24 38       	mov    0x38(%rsp),%rdx
    4dc0:	64 48 2b 14 25 28 00 	sub    %fs:0x28,%rdx
    4dc7:	00 00 
    4dc9:	75 05                	jne    4dd0 <__cxa_finalize@plt+0x2ad0>
    4dcb:	48 83 c4 48          	add    $0x48,%rsp
    4dcf:	c3                   	ret
    4dd0:	e8 4b d3 ff ff       	call   2120 <__stack_chk_fail@plt>
    4dd5:	66 66 2e 0f 1f 84 00 	data16 cs nopw 0x0(%rax,%rax,1)
    4ddc:	00 00 00 00 
    4de0:	48 83 ec 48          	sub    $0x48,%rsp
    4de4:	48 89 f0             	mov    %rsi,%rax
    4de7:	48 89 ce             	mov    %rcx,%rsi
    4dea:	66 0f 6f 05 8e 55 00 	movdqa 0x558e(%rip),%xmm0        # a380 <stderr@GLIBC_2.2.5+0x140>
    4df1:	00 
    4df2:	64 48 8b 0c 25 28 00 	mov    %fs:0x28,%rcx
    4df9:	00 00 
    4dfb:	48 89 4c 24 38       	mov    %rcx,0x38(%rsp)
    4e00:	31 c9                	xor    %ecx,%ecx
    4e02:	66 0f 6f 0d 86 55 00 	movdqa 0x5586(%rip),%xmm1        # a390 <stderr@GLIBC_2.2.5+0x150>
    4e09:	00 
    4e0a:	66 0f 6f 15 8e 55 00 	movdqa 0x558e(%rip),%xmm2        # a3a0 <stderr@GLIBC_2.2.5+0x160>
    4e11:	00 
    4e12:	48 8b 0d 97 55 00 00 	mov    0x5597(%rip),%rcx        # a3b0 <stderr@GLIBC_2.2.5+0x170>
    4e19:	0f 29 04 24          	movaps %xmm0,(%rsp)
    4e1d:	0f 29 4c 24 10       	movaps %xmm1,0x10(%rsp)
    4e22:	48 89 4c 24 30       	mov    %rcx,0x30(%rsp)
    4e27:	c7 04 24 0a 00 00 00 	movl   $0xa,(%rsp)
    4e2e:	0f 29 54 24 20       	movaps %xmm2,0x20(%rsp)
    4e33:	48 85 c0             	test   %rax,%rax
    4e36:	0f 84 fd d4 ff ff    	je     2339 <__cxa_finalize@plt+0x39>
    4e3c:	48 85 d2             	test   %rdx,%rdx
    4e3f:	0f 84 f4 d4 ff ff    	je     2339 <__cxa_finalize@plt+0x39>
    4e45:	48 89 54 24 30       	mov    %rdx,0x30(%rsp)
    4e4a:	48 89 e1             	mov    %rsp,%rcx
    4e4d:	48 c7 c2 ff ff ff ff 	mov    $0xffffffffffffffff,%rdx
    4e54:	48 89 44 24 28       	mov    %rax,0x28(%rsp)
    4e59:	e8 52 f5 ff ff       	call   43b0 <__cxa_finalize@plt+0x20b0>
    4e5e:	48 8b 54 24 38       	mov    0x38(%rsp),%rdx
    4e63:	64 48 2b 14 25 28 00 	sub    %fs:0x28,%rdx
    4e6a:	00 00 
    4e6c:	75 05                	jne    4e73 <__cxa_finalize@plt+0x2b73>
    4e6e:	48 83 c4 48          	add    $0x48,%rsp
    4e72:	c3                   	ret
    4e73:	e8 a8 d2 ff ff       	call   2120 <__stack_chk_fail@plt>
    4e78:	0f 1f 84 00 00 00 00 	nopl   0x0(%rax,%rax,1)
    4e7f:	00 
    4e80:	48 83 ec 48          	sub    $0x48,%rsp
    4e84:	41 89 f9             	mov    %edi,%r9d
    4e87:	48 89 f7             	mov    %rsi,%rdi
    4e8a:	66 0f 6f 05 ee 54 00 	movdqa 0x54ee(%rip),%xmm0        # a380 <stderr@GLIBC_2.2.5+0x140>
    4e91:	00 
    4e92:	66 0f 6f 0d f6 54 00 	movdqa 0x54f6(%rip),%xmm1        # a390 <stderr@GLIBC_2.2.5+0x150>
    4e99:	00 
    4e9a:	66 0f 6f 15 fe 54 00 	movdqa 0x54fe(%rip),%xmm2        # a3a0 <stderr@GLIBC_2.2.5+0x160>
    4ea1:	00 
    4ea2:	48 89 ce             	mov    %rcx,%rsi
    4ea5:	64 48 8b 0c 25 28 00 	mov    %fs:0x28,%rcx
    4eac:	00 00 
    4eae:	48 89 4c 24 38       	mov    %rcx,0x38(%rsp)
    4eb3:	31 c9                	xor    %ecx,%ecx
    4eb5:	48 8b 0d f4 54 00 00 	mov    0x54f4(%rip),%rcx        # a3b0 <stderr@GLIBC_2.2.5+0x170>
    4ebc:	0f 29 04 24          	movaps %xmm0,(%rsp)
    4ec0:	0f 29 4c 24 10       	movaps %xmm1,0x10(%rsp)
    4ec5:	48 89 4c 24 30       	mov    %rcx,0x30(%rsp)
    4eca:	c7 04 24 0a 00 00 00 	movl   $0xa,(%rsp)
    4ed1:	0f 29 54 24 20       	movaps %xmm2,0x20(%rsp)
    4ed6:	48 85 ff             	test   %rdi,%rdi
    4ed9:	0f 84 5f d4 ff ff    	je     233e <__cxa_finalize@plt+0x3e>
    4edf:	48 89 d0             	mov    %rdx,%rax
    4ee2:	48 85 d2             	test   %rdx,%rdx
    4ee5:	0f 84 53 d4 ff ff    	je     233e <__cxa_finalize@plt+0x3e>
    4eeb:	48 89 7c 24 28       	mov    %rdi,0x28(%rsp)
    4ef0:	4c 89 c2             	mov    %r8,%rdx
    4ef3:	48 89 e1             	mov    %rsp,%rcx
    4ef6:	44 89 cf             	mov    %r9d,%edi
    4ef9:	48 89 44 24 30       	mov    %rax,0x30(%rsp)
    4efe:	e8 ad f4 ff ff       	call   43b0 <__cxa_finalize@plt+0x20b0>
    4f03:	48 8b 54 24 38       	mov    0x38(%rsp),%rdx
    4f08:	64 48 2b 14 25 28 00 	sub    %fs:0x28,%rdx
    4f0f:	00 00 
    4f11:	75 05                	jne    4f18 <__cxa_finalize@plt+0x2c18>
    4f13:	48 83 c4 48          	add    $0x48,%rsp
    4f17:	c3                   	ret
    4f18:	e8 03 d2 ff ff       	call   2120 <__stack_chk_fail@plt>
    4f1d:	0f 1f 00             	nopl   (%rax)
    4f20:	48 83 ec 48          	sub    $0x48,%rsp
    4f24:	48 89 f0             	mov    %rsi,%rax
    4f27:	48 89 d6             	mov    %rdx,%rsi
    4f2a:	66 0f 6f 05 4e 54 00 	movdqa 0x544e(%rip),%xmm0        # a380 <stderr@GLIBC_2.2.5+0x140>
    4f31:	00 
    4f32:	64 48 8b 14 25 28 00 	mov    %fs:0x28,%rdx
    4f39:	00 00 
    4f3b:	48 89 54 24 38       	mov    %rdx,0x38(%rsp)
    4f40:	31 d2                	xor    %edx,%edx
    4f42:	66 0f 6f 0d 46 54 00 	movdqa 0x5446(%rip),%xmm1        # a390 <stderr@GLIBC_2.2.5+0x150>
    4f49:	00 
    4f4a:	66 0f 6f 15 4e 54 00 	movdqa 0x544e(%rip),%xmm2        # a3a0 <stderr@GLIBC_2.2.5+0x160>
    4f51:	00 
    4f52:	48 8b 15 57 54 00 00 	mov    0x5457(%rip),%rdx        # a3b0 <stderr@GLIBC_2.2.5+0x170>
    4f59:	0f 29 04 24          	movaps %xmm0,(%rsp)
    4f5d:	0f 29 4c 24 10       	movaps %xmm1,0x10(%rsp)
    4f62:	48 89 54 24 30       	mov    %rdx,0x30(%rsp)
    4f67:	c7 04 24 0a 00 00 00 	movl   $0xa,(%rsp)
    4f6e:	0f 29 54 24 20       	movaps %xmm2,0x20(%rsp)
    4f73:	48 85 ff             	test   %rdi,%rdi
    4f76:	0f 84 c7 d3 ff ff    	je     2343 <__cxa_finalize@plt+0x43>
    4f7c:	48 85 c0             	test   %rax,%rax
    4f7f:	0f 84 be d3 ff ff    	je     2343 <__cxa_finalize@plt+0x43>
    4f85:	48 89 7c 24 28       	mov    %rdi,0x28(%rsp)
    4f8a:	48 c7 c2 ff ff ff ff 	mov    $0xffffffffffffffff,%rdx
    4f91:	31 ff                	xor    %edi,%edi
    4f93:	48 89 e1             	mov    %rsp,%rcx
    4f96:	48 89 44 24 30       	mov    %rax,0x30(%rsp)
    4f9b:	e8 10 f4 ff ff       	call   43b0 <__cxa_finalize@plt+0x20b0>
    4fa0:	48 8b 54 24 38       	mov    0x38(%rsp),%rdx
    4fa5:	64 48 2b 14 25 28 00 	sub    %fs:0x28,%rdx
    4fac:	00 00 
    4fae:	75 05                	jne    4fb5 <__cxa_finalize@plt+0x2cb5>
    4fb0:	48 83 c4 48          	add    $0x48,%rsp
    4fb4:	c3                   	ret
    4fb5:	e8 66 d1 ff ff       	call   2120 <__stack_chk_fail@plt>
    4fba:	66 0f 1f 44 00 00    	nopw   0x0(%rax,%rax,1)
    4fc0:	48 83 ec 48          	sub    $0x48,%rsp
    4fc4:	48 89 f0             	mov    %rsi,%rax
    4fc7:	48 89 d6             	mov    %rdx,%rsi
    4fca:	66 0f 6f 05 ae 53 00 	movdqa 0x53ae(%rip),%xmm0        # a380 <stderr@GLIBC_2.2.5+0x140>
    4fd1:	00 
    4fd2:	66 0f 6f 0d b6 53 00 	movdqa 0x53b6(%rip),%xmm1        # a390 <stderr@GLIBC_2.2.5+0x150>
    4fd9:	00 
    4fda:	66 0f 6f 15 be 53 00 	movdqa 0x53be(%rip),%xmm2        # a3a0 <stderr@GLIBC_2.2.5+0x160>
    4fe1:	00 
    4fe2:	48 89 ca             	mov    %rcx,%rdx
    4fe5:	64 48 8b 0c 25 28 00 	mov    %fs:0x28,%rcx
    4fec:	00 00 
    4fee:	48 89 4c 24 38       	mov    %rcx,0x38(%rsp)
    4ff3:	31 c9                	xor    %ecx,%ecx
    4ff5:	48 8b 0d b4 53 00 00 	mov    0x53b4(%rip),%rcx        # a3b0 <stderr@GLIBC_2.2.5+0x170>
    4ffc:	0f 29 04 24          	movaps %xmm0,(%rsp)
    5000:	0f 29 4c 24 10       	movaps %xmm1,0x10(%rsp)
    5005:	48 89 4c 24 30       	mov    %rcx,0x30(%rsp)
    500a:	c7 04 24 0a 00 00 00 	movl   $0xa,(%rsp)
    5011:	0f 29 54 24 20       	movaps %xmm2,0x20(%rsp)
    5016:	48 85 ff             	test   %rdi,%rdi
    5019:	0f 84 29 d3 ff ff    	je     2348 <__cxa_finalize@plt+0x48>
    501f:	48 85 c0             	test   %rax,%rax
    5022:	0f 84 20 d3 ff ff    	je     2348 <__cxa_finalize@plt+0x48>
    5028:	48 89 7c 24 28       	mov    %rdi,0x28(%rsp)
    502d:	48 89 e1             	mov    %rsp,%rcx
    5030:	31 ff                	xor    %edi,%edi
    5032:	48 89 44 24 30       	mov    %rax,0x30(%rsp)
    5037:	e8 74 f3 ff ff       	call   43b0 <__cxa_finalize@plt+0x20b0>
    503c:	48 8b 54 24 38       	mov    0x38(%rsp),%rdx
    5041:	64 48 2b 14 25 28 00 	sub    %fs:0x28,%rdx
    5048:	00 00 
    504a:	75 05                	jne    5051 <__cxa_finalize@plt+0x2d51>
    504c:	48 83 c4 48          	add    $0x48,%rsp
    5050:	c3                   	ret
    5051:	e8 ca d0 ff ff       	call   2120 <__stack_chk_fail@plt>
    5056:	66 2e 0f 1f 84 00 00 	cs nopw 0x0(%rax,%rax,1)
    505d:	00 00 00 
    5060:	48 8d 0d 39 51 00 00 	lea    0x5139(%rip),%rcx        # a1a0 <__cxa_finalize@plt+0x7ea0>
    5067:	e9 44 f3 ff ff       	jmp    43b0 <__cxa_finalize@plt+0x20b0>
    506c:	0f 1f 40 00          	nopl   0x0(%rax)
    5070:	48 89 f2             	mov    %rsi,%rdx
    5073:	48 8d 0d 26 51 00 00 	lea    0x5126(%rip),%rcx        # a1a0 <__cxa_finalize@plt+0x7ea0>
    507a:	48 89 fe             	mov    %rdi,%rsi
    507d:	31 ff                	xor    %edi,%edi
    507f:	e9 2c f3 ff ff       	jmp    43b0 <__cxa_finalize@plt+0x20b0>
    5084:	66 66 2e 0f 1f 84 00 	data16 cs nopw 0x0(%rax,%rax,1)
    508b:	00 00 00 00 
    508f:	90                   	nop
    5090:	48 8d 0d 09 51 00 00 	lea    0x5109(%rip),%rcx        # a1a0 <__cxa_finalize@plt+0x7ea0>
    5097:	48 c7 c2 ff ff ff ff 	mov    $0xffffffffffffffff,%rdx
    509e:	e9 0d f3 ff ff       	jmp    43b0 <__cxa_finalize@plt+0x20b0>
    50a3:	66 66 2e 0f 1f 84 00 	data16 cs nopw 0x0(%rax,%rax,1)
    50aa:	00 00 00 00 
    50ae:	66 90                	xchg   %ax,%ax
    50b0:	48 89 fe             	mov    %rdi,%rsi
    50b3:	48 8d 0d e6 50 00 00 	lea    0x50e6(%rip),%rcx        # a1a0 <__cxa_finalize@plt+0x7ea0>
    50ba:	48 c7 c2 ff ff ff ff 	mov    $0xffffffffffffffff,%rdx
    50c1:	31 ff                	xor    %edi,%edi
    50c3:	e9 e8 f2 ff ff       	jmp    43b0 <__cxa_finalize@plt+0x20b0>
    50c8:	0f 1f 84 00 00 00 00 	nopl   0x0(%rax,%rax,1)
    50cf:	00 
    50d0:	41 57                	push   %r15
    50d2:	41 56                	push   %r14
    50d4:	41 55                	push   %r13
    50d6:	41 54                	push   %r12
    50d8:	4d 89 cc             	mov    %r9,%r12
    50db:	55                   	push   %rbp
    50dc:	4c 89 c5             	mov    %r8,%rbp
    50df:	53                   	push   %rbx
    50e0:	48 89 fb             	mov    %rdi,%rbx
    50e3:	48 83 ec 28          	sub    $0x28,%rsp
    50e7:	48 85 f6             	test   %rsi,%rsi
    50ea:	0f 84 40 01 00 00    	je     5230 <__cxa_finalize@plt+0x2f30>
    50f0:	49 89 c9             	mov    %rcx,%r9
    50f3:	49 89 d0             	mov    %rdx,%r8
    50f6:	48 89 f1             	mov    %rsi,%rcx
    50f9:	31 c0                	xor    %eax,%eax
    50fb:	48 8d 15 1e 26 00 00 	lea    0x261e(%rip),%rdx        # 7720 <__cxa_finalize@plt+0x5420>
    5102:	be 01 00 00 00       	mov    $0x1,%esi
    5107:	e8 b4 d1 ff ff       	call   22c0 <__fprintf_chk@plt>
    510c:	31 ff                	xor    %edi,%edi
    510e:	ba 05 00 00 00       	mov    $0x5,%edx
    5113:	48 8d 35 19 26 00 00 	lea    0x2619(%rip),%rsi        # 7733 <__cxa_finalize@plt+0x5433>
    511a:	e8 d1 cf ff ff       	call   20f0 <dcgettext@plt>
    511f:	41 b8 e6 07 00 00    	mov    $0x7e6,%r8d
    5125:	be 01 00 00 00       	mov    $0x1,%esi
    512a:	48 89 df             	mov    %rbx,%rdi
    512d:	48 89 c1             	mov    %rax,%rcx
    5130:	48 8d 15 29 29 00 00 	lea    0x2929(%rip),%rdx        # 7a60 <__cxa_finalize@plt+0x5760>
    5137:	31 c0                	xor    %eax,%eax
    5139:	e8 82 d1 ff ff       	call   22c0 <__fprintf_chk@plt>
    513e:	48 89 de             	mov    %rbx,%rsi
    5141:	bf 0a 00 00 00       	mov    $0xa,%edi
    5146:	e8 85 d0 ff ff       	call   21d0 <fputc_unlocked@plt>
    514b:	31 ff                	xor    %edi,%edi
    514d:	ba 05 00 00 00       	mov    $0x5,%edx
    5152:	48 8d 35 7f 26 00 00 	lea    0x267f(%rip),%rsi        # 77d8 <__cxa_finalize@plt+0x54d8>
    5159:	e8 92 cf ff ff       	call   20f0 <dcgettext@plt>
    515e:	be 01 00 00 00       	mov    $0x1,%esi
    5163:	48 89 df             	mov    %rbx,%rdi
    5166:	48 8d 0d 1b 27 00 00 	lea    0x271b(%rip),%rcx        # 7888 <__cxa_finalize@plt+0x5588>
    516d:	48 89 c2             	mov    %rax,%rdx
    5170:	31 c0                	xor    %eax,%eax
    5172:	e8 49 d1 ff ff       	call   22c0 <__fprintf_chk@plt>
    5177:	48 89 de             	mov    %rbx,%rsi
    517a:	bf 0a 00 00 00       	mov    $0xa,%edi
    517f:	e8 4c d0 ff ff       	call   21d0 <fputc_unlocked@plt>
    5184:	49 83 fc 09          	cmp    $0x9,%r12
    5188:	0f 87 3c 03 00 00    	ja     54ca <__cxa_finalize@plt+0x31ca>
    518e:	48 8d 15 8b 28 00 00 	lea    0x288b(%rip),%rdx        # 7a20 <__cxa_finalize@plt+0x5720>
    5195:	4a 63 04 a2          	movslq (%rdx,%r12,4),%rax
    5199:	48 01 d0             	add    %rdx,%rax
    519c:	ff e0                	jmp    *%rax
    519e:	66 90                	xchg   %ax,%ax
    51a0:	4c 8b 4d 38          	mov    0x38(%rbp),%r9
    51a4:	48 8b 45 10          	mov    0x10(%rbp),%rax
    51a8:	ba 05 00 00 00       	mov    $0x5,%edx
    51ad:	31 ff                	xor    %edi,%edi
    51af:	4c 8b 45 08          	mov    0x8(%rbp),%r8
    51b3:	48 8d 35 96 27 00 00 	lea    0x2796(%rip),%rsi        # 7950 <__cxa_finalize@plt+0x5650>
    51ba:	4c 8b 6d 30          	mov    0x30(%rbp),%r13
    51be:	4c 8b 65 28          	mov    0x28(%rbp),%r12
    51c2:	4c 8b 7d 20          	mov    0x20(%rbp),%r15
    51c6:	4c 89 4c 24 10       	mov    %r9,0x10(%rsp)
    51cb:	48 89 04 24          	mov    %rax,(%rsp)
    51cf:	4c 8b 75 18          	mov    0x18(%rbp),%r14
    51d3:	4c 89 44 24 08       	mov    %r8,0x8(%rsp)
    51d8:	48 8b 6d 00          	mov    0x0(%rbp),%rbp
    51dc:	e8 0f cf ff ff       	call   20f0 <dcgettext@plt>
    51e1:	48 83 ec 08          	sub    $0x8,%rsp
    51e5:	48 89 c2             	mov    %rax,%rdx
    51e8:	4c 8b 4c 24 18       	mov    0x18(%rsp),%r9
    51ed:	48 89 e9             	mov    %rbp,%rcx
    51f0:	be 01 00 00 00       	mov    $0x1,%esi
    51f5:	48 89 df             	mov    %rbx,%rdi
    51f8:	31 c0                	xor    %eax,%eax
    51fa:	41 51                	push   %r9
    51fc:	41 55                	push   %r13
    51fe:	41 54                	push   %r12
    5200:	41 57                	push   %r15
    5202:	41 56                	push   %r14
    5204:	4c 8b 4c 24 30       	mov    0x30(%rsp),%r9
    5209:	4c 8b 44 24 38       	mov    0x38(%rsp),%r8
    520e:	e8 ad d0 ff ff       	call   22c0 <__fprintf_chk@plt>
    5213:	48 83 c4 30          	add    $0x30,%rsp
    5217:	48 83 c4 28          	add    $0x28,%rsp
    521b:	5b                   	pop    %rbx
    521c:	5d                   	pop    %rbp
    521d:	41 5c                	pop    %r12
    521f:	41 5d                	pop    %r13
    5221:	41 5e                	pop    %r14
    5223:	41 5f                	pop    %r15
    5225:	c3                   	ret
    5226:	66 2e 0f 1f 84 00 00 	cs nopw 0x0(%rax,%rax,1)
    522d:	00 00 00 
    5230:	49 89 c8             	mov    %rcx,%r8
    5233:	be 01 00 00 00       	mov    $0x1,%esi
    5238:	48 89 d1             	mov    %rdx,%rcx
    523b:	31 c0                	xor    %eax,%eax
    523d:	48 8d 15 e8 24 00 00 	lea    0x24e8(%rip),%rdx        # 772c <__cxa_finalize@plt+0x542c>
    5244:	e8 77 d0 ff ff       	call   22c0 <__fprintf_chk@plt>
    5249:	e9 be fe ff ff       	jmp    510c <__cxa_finalize@plt+0x2e0c>
    524e:	66 90                	xchg   %ax,%ax
    5250:	4c 8b 55 40          	mov    0x40(%rbp),%r10
    5254:	4c 8b 4d 38          	mov    0x38(%rbp),%r9
    5258:	ba 05 00 00 00       	mov    $0x5,%edx
    525d:	48 8d 35 1c 27 00 00 	lea    0x271c(%rip),%rsi        # 7980 <__cxa_finalize@plt+0x5680>
    5264:	48 8b 45 10          	mov    0x10(%rbp),%rax
    5268:	4c 8b 45 08          	mov    0x8(%rbp),%r8
    526c:	4c 8b 6d 30          	mov    0x30(%rbp),%r13
    5270:	4c 8b 65 28          	mov    0x28(%rbp),%r12
    5274:	4c 89 54 24 18       	mov    %r10,0x18(%rsp)
    5279:	4c 8b 7d 20          	mov    0x20(%rbp),%r15
    527d:	4c 8b 75 18          	mov    0x18(%rbp),%r14
    5281:	4c 89 4c 24 10       	mov    %r9,0x10(%rsp)
    5286:	48 89 04 24          	mov    %rax,(%rsp)
    528a:	48 8b 6d 00          	mov    0x0(%rbp),%rbp
    528e:	4c 89 44 24 08       	mov    %r8,0x8(%rsp)
    5293:	31 ff                	xor    %edi,%edi
    5295:	e8 56 ce ff ff       	call   20f0 <dcgettext@plt>
    529a:	4c 8b 54 24 18       	mov    0x18(%rsp),%r10
    529f:	48 89 c2             	mov    %rax,%rdx
    52a2:	41 52                	push   %r10
    52a4:	e9 3f ff ff ff       	jmp    51e8 <__cxa_finalize@plt+0x2ee8>
    52a9:	0f 1f 80 00 00 00 00 	nopl   0x0(%rax)
    52b0:	48 8b 6d 00          	mov    0x0(%rbp),%rbp
    52b4:	ba 05 00 00 00       	mov    $0x5,%edx
    52b9:	48 8d 35 77 24 00 00 	lea    0x2477(%rip),%rsi        # 7737 <__cxa_finalize@plt+0x5437>
    52c0:	31 ff                	xor    %edi,%edi
    52c2:	e8 29 ce ff ff       	call   20f0 <dcgettext@plt>
    52c7:	48 83 c4 28          	add    $0x28,%rsp
    52cb:	48 89 df             	mov    %rbx,%rdi
    52ce:	be 01 00 00 00       	mov    $0x1,%esi
    52d3:	5b                   	pop    %rbx
    52d4:	48 89 c2             	mov    %rax,%rdx
    52d7:	48 89 e9             	mov    %rbp,%rcx
    52da:	31 c0                	xor    %eax,%eax
    52dc:	5d                   	pop    %rbp
    52dd:	41 5c                	pop    %r12
    52df:	41 5d                	pop    %r13
    52e1:	41 5e                	pop    %r14
    52e3:	41 5f                	pop    %r15
    52e5:	e9 d6 cf ff ff       	jmp    22c0 <__fprintf_chk@plt>
    52ea:	66 0f 1f 44 00 00    	nopw   0x0(%rax,%rax,1)
    52f0:	4c 8b 65 08          	mov    0x8(%rbp),%r12
    52f4:	ba 05 00 00 00       	mov    $0x5,%edx
    52f9:	48 8b 6d 00          	mov    0x0(%rbp),%rbp
    52fd:	31 ff                	xor    %edi,%edi
    52ff:	48 8d 35 41 24 00 00 	lea    0x2441(%rip),%rsi        # 7747 <__cxa_finalize@plt+0x5447>
    5306:	e8 e5 cd ff ff       	call   20f0 <dcgettext@plt>
    530b:	48 83 c4 28          	add    $0x28,%rsp
    530f:	4d 89 e0             	mov    %r12,%r8
    5312:	48 89 e9             	mov    %rbp,%rcx
    5315:	48 89 c2             	mov    %rax,%rdx
    5318:	48 89 df             	mov    %rbx,%rdi
    531b:	be 01 00 00 00       	mov    $0x1,%esi
    5320:	5b                   	pop    %rbx
    5321:	31 c0                	xor    %eax,%eax
    5323:	5d                   	pop    %rbp
    5324:	41 5c                	pop    %r12
    5326:	41 5d                	pop    %r13
    5328:	41 5e                	pop    %r14
    532a:	41 5f                	pop    %r15
    532c:	e9 8f cf ff ff       	jmp    22c0 <__fprintf_chk@plt>
    5331:	0f 1f 80 00 00 00 00 	nopl   0x0(%rax)
    5338:	4c 8b 6d 10          	mov    0x10(%rbp),%r13
    533c:	4c 8b 65 08          	mov    0x8(%rbp),%r12
    5340:	ba 05 00 00 00       	mov    $0x5,%edx
    5345:	31 ff                	xor    %edi,%edi
    5347:	48 8b 6d 00          	mov    0x0(%rbp),%rbp
    534b:	48 8d 35 0c 24 00 00 	lea    0x240c(%rip),%rsi        # 775e <__cxa_finalize@plt+0x545e>
    5352:	e8 99 cd ff ff       	call   20f0 <dcgettext@plt>
    5357:	48 83 c4 28          	add    $0x28,%rsp
    535b:	4d 89 e9             	mov    %r13,%r9
    535e:	4d 89 e0             	mov    %r12,%r8
    5361:	48 89 c2             	mov    %rax,%rdx
    5364:	48 89 e9             	mov    %rbp,%rcx
    5367:	48 89 df             	mov    %rbx,%rdi
    536a:	be 01 00 00 00       	mov    $0x1,%esi
    536f:	5b                   	pop    %rbx
    5370:	31 c0                	xor    %eax,%eax
    5372:	5d                   	pop    %rbp
    5373:	41 5c                	pop    %r12
    5375:	41 5d                	pop    %r13
    5377:	41 5e                	pop    %r14
    5379:	41 5f                	pop    %r15
    537b:	e9 40 cf ff ff       	jmp    22c0 <__fprintf_chk@plt>
    5380:	ba 05 00 00 00       	mov    $0x5,%edx
    5385:	31 ff                	xor    %edi,%edi
    5387:	4c 8b 75 18          	mov    0x18(%rbp),%r14
    538b:	4c 8b 6d 10          	mov    0x10(%rbp),%r13
    538f:	48 8d 35 1a 25 00 00 	lea    0x251a(%rip),%rsi        # 78b0 <__cxa_finalize@plt+0x55b0>
    5396:	4c 8b 65 08          	mov    0x8(%rbp),%r12
    539a:	48 8b 6d 00          	mov    0x0(%rbp),%rbp
    539e:	e8 4d cd ff ff       	call   20f0 <dcgettext@plt>
    53a3:	48 83 ec 08          	sub    $0x8,%rsp
    53a7:	48 89 c2             	mov    %rax,%rdx
    53aa:	41 56                	push   %r14
    53ac:	4d 89 e9             	mov    %r13,%r9
    53af:	4d 89 e0             	mov    %r12,%r8
    53b2:	48 89 e9             	mov    %rbp,%rcx
    53b5:	48 89 df             	mov    %rbx,%rdi
    53b8:	be 01 00 00 00       	mov    $0x1,%esi
    53bd:	31 c0                	xor    %eax,%eax
    53bf:	e8 fc ce ff ff       	call   22c0 <__fprintf_chk@plt>
    53c4:	58                   	pop    %rax
    53c5:	5a                   	pop    %rdx
    53c6:	48 83 c4 28          	add    $0x28,%rsp
    53ca:	5b                   	pop    %rbx
    53cb:	5d                   	pop    %rbp
    53cc:	41 5c                	pop    %r12
    53ce:	41 5d                	pop    %r13
    53d0:	41 5e                	pop    %r14
    53d2:	41 5f                	pop    %r15
    53d4:	c3                   	ret
    53d5:	0f 1f 00             	nopl   (%rax)
    53d8:	4c 8b 7d 20          	mov    0x20(%rbp),%r15
    53dc:	ba 05 00 00 00       	mov    $0x5,%edx
    53e1:	31 ff                	xor    %edi,%edi
    53e3:	4c 8b 75 18          	mov    0x18(%rbp),%r14
    53e7:	48 8d 35 e2 24 00 00 	lea    0x24e2(%rip),%rsi        # 78d0 <__cxa_finalize@plt+0x55d0>
    53ee:	4c 8b 6d 10          	mov    0x10(%rbp),%r13
    53f2:	4c 8b 65 08          	mov    0x8(%rbp),%r12
    53f6:	48 8b 6d 00          	mov    0x0(%rbp),%rbp
    53fa:	e8 f1 cc ff ff       	call   20f0 <dcgettext@plt>
    53ff:	41 57                	push   %r15
    5401:	48 89 c2             	mov    %rax,%rdx
    5404:	eb a4                	jmp    53aa <__cxa_finalize@plt+0x30aa>
    5406:	66 2e 0f 1f 84 00 00 	cs nopw 0x0(%rax,%rax,1)
    540d:	00 00 00 
    5410:	4c 8b 45 08          	mov    0x8(%rbp),%r8
    5414:	4c 8b 65 28          	mov    0x28(%rbp),%r12
    5418:	ba 05 00 00 00       	mov    $0x5,%edx
    541d:	31 ff                	xor    %edi,%edi
    541f:	4c 8b 7d 20          	mov    0x20(%rbp),%r15
    5423:	4c 8b 75 18          	mov    0x18(%rbp),%r14
    5427:	48 8d 35 ca 24 00 00 	lea    0x24ca(%rip),%rsi        # 78f8 <__cxa_finalize@plt+0x55f8>
    542e:	4c 89 04 24          	mov    %r8,(%rsp)
    5432:	4c 8b 6d 10          	mov    0x10(%rbp),%r13
    5436:	48 8b 6d 00          	mov    0x0(%rbp),%rbp
    543a:	e8 b1 cc ff ff       	call   20f0 <dcgettext@plt>
    543f:	48 83 ec 08          	sub    $0x8,%rsp
    5443:	4d 89 e9             	mov    %r13,%r9
    5446:	41 54                	push   %r12
    5448:	48 89 c2             	mov    %rax,%rdx
    544b:	41 57                	push   %r15
    544d:	41 56                	push   %r14
    544f:	4c 8b 44 24 20       	mov    0x20(%rsp),%r8
    5454:	48 89 e9             	mov    %rbp,%rcx
    5457:	48 89 df             	mov    %rbx,%rdi
    545a:	be 01 00 00 00       	mov    $0x1,%esi
    545f:	31 c0                	xor    %eax,%eax
    5461:	e8 5a ce ff ff       	call   22c0 <__fprintf_chk@plt>
    5466:	48 83 c4 20          	add    $0x20,%rsp
    546a:	48 83 c4 28          	add    $0x28,%rsp
    546e:	5b                   	pop    %rbx
    546f:	5d                   	pop    %rbp
    5470:	41 5c                	pop    %r12
    5472:	41 5d                	pop    %r13
    5474:	41 5e                	pop    %r14
    5476:	41 5f                	pop    %r15
    5478:	c3                   	ret
    5479:	0f 1f 80 00 00 00 00 	nopl   0x0(%rax)
    5480:	4c 8b 4d 10          	mov    0x10(%rbp),%r9
    5484:	4c 8b 45 08          	mov    0x8(%rbp),%r8
    5488:	ba 05 00 00 00       	mov    $0x5,%edx
    548d:	31 ff                	xor    %edi,%edi
    548f:	4c 8b 6d 30          	mov    0x30(%rbp),%r13
    5493:	4c 8b 65 28          	mov    0x28(%rbp),%r12
    5497:	48 8d 35 82 24 00 00 	lea    0x2482(%rip),%rsi        # 7920 <__cxa_finalize@plt+0x5620>
    549e:	4c 8b 7d 20          	mov    0x20(%rbp),%r15
    54a2:	4c 8b 75 18          	mov    0x18(%rbp),%r14
    54a6:	4c 89 4c 24 08       	mov    %r9,0x8(%rsp)
    54ab:	4c 89 04 24          	mov    %r8,(%rsp)
    54af:	48 8b 6d 00          	mov    0x0(%rbp),%rbp
    54b3:	e8 38 cc ff ff       	call   20f0 <dcgettext@plt>
    54b8:	41 55                	push   %r13
    54ba:	48 89 c2             	mov    %rax,%rdx
    54bd:	41 54                	push   %r12
    54bf:	41 57                	push   %r15
    54c1:	41 56                	push   %r14
    54c3:	4c 8b 4c 24 28       	mov    0x28(%rsp),%r9
    54c8:	eb 85                	jmp    544f <__cxa_finalize@plt+0x314f>
    54ca:	4c 8b 55 40          	mov    0x40(%rbp),%r10
    54ce:	4c 8b 4d 38          	mov    0x38(%rbp),%r9
    54d2:	ba 05 00 00 00       	mov    $0x5,%edx
    54d7:	48 8d 35 da 24 00 00 	lea    0x24da(%rip),%rsi        # 79b8 <__cxa_finalize@plt+0x56b8>
    54de:	48 8b 45 10          	mov    0x10(%rbp),%rax
    54e2:	4c 8b 45 08          	mov    0x8(%rbp),%r8
    54e6:	4c 8b 6d 30          	mov    0x30(%rbp),%r13
    54ea:	4c 8b 65 28          	mov    0x28(%rbp),%r12
    54ee:	4c 89 54 24 18       	mov    %r10,0x18(%rsp)
    54f3:	4c 8b 7d 20          	mov    0x20(%rbp),%r15
    54f7:	4c 8b 75 18          	mov    0x18(%rbp),%r14
    54fb:	4c 89 4c 24 10       	mov    %r9,0x10(%rsp)
    5500:	48 89 04 24          	mov    %rax,(%rsp)
    5504:	48 8b 6d 00          	mov    0x0(%rbp),%rbp
    5508:	4c 89 44 24 08       	mov    %r8,0x8(%rsp)
    550d:	e9 81 fd ff ff       	jmp    5293 <__cxa_finalize@plt+0x2f93>
    5512:	66 66 2e 0f 1f 84 00 	data16 cs nopw 0x0(%rax,%rax,1)
    5519:	00 00 00 00 
    551d:	0f 1f 00             	nopl   (%rax)
    5520:	45 31 c9             	xor    %r9d,%r9d
    5523:	49 83 38 00          	cmpq   $0x0,(%r8)
    5527:	74 12                	je     553b <__cxa_finalize@plt+0x323b>
    5529:	0f 1f 80 00 00 00 00 	nopl   0x0(%rax)
    5530:	49 83 c1 01          	add    $0x1,%r9
    5534:	4b 83 3c c8 00       	cmpq   $0x0,(%r8,%r9,8)
    5539:	75 f5                	jne    5530 <__cxa_finalize@plt+0x3230>
    553b:	e9 90 fb ff ff       	jmp    50d0 <__cxa_finalize@plt+0x2dd0>
    5540:	48 83 ec 68          	sub    $0x68,%rsp
    5544:	49 89 cb             	mov    %rcx,%r11
    5547:	49 89 d2             	mov    %rdx,%r10
    554a:	4c 89 c1             	mov    %r8,%rcx
    554d:	64 48 8b 04 25 28 00 	mov    %fs:0x28,%rax
    5554:	00 00 
    5556:	48 89 44 24 58       	mov    %rax,0x58(%rsp)
    555b:	31 c0                	xor    %eax,%eax
    555d:	45 31 c9             	xor    %r9d,%r9d
    5560:	49 89 e0             	mov    %rsp,%r8
    5563:	eb 24                	jmp    5589 <__cxa_finalize@plt+0x3289>
    5565:	0f 1f 00             	nopl   (%rax)
    5568:	89 c2                	mov    %eax,%edx
    556a:	83 c0 08             	add    $0x8,%eax
    556d:	48 03 51 10          	add    0x10(%rcx),%rdx
    5571:	89 01                	mov    %eax,(%rcx)
    5573:	48 8b 02             	mov    (%rdx),%rax
    5576:	4b 89 04 c8          	mov    %rax,(%r8,%r9,8)
    557a:	48 85 c0             	test   %rax,%rax
    557d:	74 31                	je     55b0 <__cxa_finalize@plt+0x32b0>
    557f:	49 83 c1 01          	add    $0x1,%r9
    5583:	49 83 f9 0a          	cmp    $0xa,%r9
    5587:	74 27                	je     55b0 <__cxa_finalize@plt+0x32b0>
    5589:	8b 01                	mov    (%rcx),%eax
    558b:	83 f8 2f             	cmp    $0x2f,%eax
    558e:	76 d8                	jbe    5568 <__cxa_finalize@plt+0x3268>
    5590:	48 8b 51 08          	mov    0x8(%rcx),%rdx
    5594:	48 8d 42 08          	lea    0x8(%rdx),%rax
    5598:	48 89 41 08          	mov    %rax,0x8(%rcx)
    559c:	48 8b 02             	mov    (%rdx),%rax
    559f:	4b 89 04 c8          	mov    %rax,(%r8,%r9,8)
    55a3:	48 85 c0             	test   %rax,%rax
    55a6:	75 d7                	jne    557f <__cxa_finalize@plt+0x327f>
    55a8:	0f 1f 84 00 00 00 00 	nopl   0x0(%rax,%rax,1)
    55af:	00 
    55b0:	4c 89 d9             	mov    %r11,%rcx
    55b3:	4c 89 d2             	mov    %r10,%rdx
    55b6:	e8 15 fb ff ff       	call   50d0 <__cxa_finalize@plt+0x2dd0>
    55bb:	48 8b 44 24 58       	mov    0x58(%rsp),%rax
    55c0:	64 48 2b 04 25 28 00 	sub    %fs:0x28,%rax
    55c7:	00 00 
    55c9:	75 05                	jne    55d0 <__cxa_finalize@plt+0x32d0>
    55cb:	48 83 c4 68          	add    $0x68,%rsp
    55cf:	c3                   	ret
    55d0:	e8 4b cb ff ff       	call   2120 <__stack_chk_fail@plt>
    55d5:	66 66 2e 0f 1f 84 00 	data16 cs nopw 0x0(%rax,%rax,1)
    55dc:	00 00 00 00 
    55e0:	53                   	push   %rbx
    55e1:	49 89 fa             	mov    %rdi,%r10
    55e4:	49 89 f3             	mov    %rsi,%r11
    55e7:	48 89 d3             	mov    %rdx,%rbx
    55ea:	ba 20 00 00 00       	mov    $0x20,%edx
    55ef:	48 81 ec b0 00 00 00 	sub    $0xb0,%rsp
    55f6:	4c 89 84 24 a0 00 00 	mov    %r8,0xa0(%rsp)
    55fd:	00 
    55fe:	48 8d bc 24 80 00 00 	lea    0x80(%rsp),%rdi
    5605:	00 
    5606:	48 8d b4 24 c0 00 00 	lea    0xc0(%rsp),%rsi
    560d:	00 
    560e:	4c 89 8c 24 a8 00 00 	mov    %r9,0xa8(%rsp)
    5615:	00 
    5616:	4c 8d 44 24 20       	lea    0x20(%rsp),%r8
    561b:	45 31 c9             	xor    %r9d,%r9d
    561e:	64 48 8b 04 25 28 00 	mov    %fs:0x28,%rax
    5625:	00 00 
    5627:	48 89 44 24 78       	mov    %rax,0x78(%rsp)
    562c:	31 c0                	xor    %eax,%eax
    562e:	48 8d 84 24 c0 00 00 	lea    0xc0(%rsp),%rax
    5635:	00 
    5636:	c7 44 24 08 20 00 00 	movl   $0x20,0x8(%rsp)
    563d:	00 
    563e:	48 89 44 24 10       	mov    %rax,0x10(%rsp)
    5643:	48 89 7c 24 18       	mov    %rdi,0x18(%rsp)
    5648:	eb 24                	jmp    566e <__cxa_finalize@plt+0x336e>
    564a:	66 0f 1f 44 00 00    	nopw   0x0(%rax,%rax,1)
    5650:	89 d0                	mov    %edx,%eax
    5652:	83 c2 08             	add    $0x8,%edx
    5655:	48 01 f8             	add    %rdi,%rax
    5658:	48 8b 00             	mov    (%rax),%rax
    565b:	4b 89 04 c8          	mov    %rax,(%r8,%r9,8)
    565f:	48 85 c0             	test   %rax,%rax
    5662:	74 2c                	je     5690 <__cxa_finalize@plt+0x3390>
    5664:	49 83 c1 01          	add    $0x1,%r9
    5668:	49 83 f9 0a          	cmp    $0xa,%r9
    566c:	74 22                	je     5690 <__cxa_finalize@plt+0x3390>
    566e:	83 fa 2f             	cmp    $0x2f,%edx
    5671:	76 dd                	jbe    5650 <__cxa_finalize@plt+0x3350>
    5673:	48 89 f0             	mov    %rsi,%rax
    5676:	48 83 c6 08          	add    $0x8,%rsi
    567a:	48 8b 00             	mov    (%rax),%rax
    567d:	4b 89 04 c8          	mov    %rax,(%r8,%r9,8)
    5681:	48 85 c0             	test   %rax,%rax
    5684:	75 de                	jne    5664 <__cxa_finalize@plt+0x3364>
    5686:	66 2e 0f 1f 84 00 00 	cs nopw 0x0(%rax,%rax,1)
    568d:	00 00 00 
    5690:	48 89 da             	mov    %rbx,%rdx
    5693:	4c 89 de             	mov    %r11,%rsi
    5696:	4c 89 d7             	mov    %r10,%rdi
    5699:	e8 32 fa ff ff       	call   50d0 <__cxa_finalize@plt+0x2dd0>
    569e:	48 8b 44 24 78       	mov    0x78(%rsp),%rax
    56a3:	64 48 2b 04 25 28 00 	sub    %fs:0x28,%rax
    56aa:	00 00 
    56ac:	75 09                	jne    56b7 <__cxa_finalize@plt+0x33b7>
    56ae:	48 81 c4 b0 00 00 00 	add    $0xb0,%rsp
    56b5:	5b                   	pop    %rbx
    56b6:	c3                   	ret
    56b7:	e8 64 ca ff ff       	call   2120 <__stack_chk_fail@plt>
    56bc:	0f 1f 40 00          	nopl   0x0(%rax)
    56c0:	48 83 ec 08          	sub    $0x8,%rsp
    56c4:	48 8b 35 3d 4b 00 00 	mov    0x4b3d(%rip),%rsi        # a208 <stdout@GLIBC_2.2.5>
    56cb:	bf 0a 00 00 00       	mov    $0xa,%edi
    56d0:	e8 fb ca ff ff       	call   21d0 <fputc_unlocked@plt>
    56d5:	ba 05 00 00 00       	mov    $0x5,%edx
    56da:	48 8d 35 99 20 00 00 	lea    0x2099(%rip),%rsi        # 777a <__cxa_finalize@plt+0x547a>
    56e1:	31 ff                	xor    %edi,%edi
    56e3:	e8 08 ca ff ff       	call   20f0 <dcgettext@plt>
    56e8:	48 8d 15 9f 20 00 00 	lea    0x209f(%rip),%rdx        # 778e <__cxa_finalize@plt+0x548e>
    56ef:	bf 01 00 00 00       	mov    $0x1,%edi
    56f4:	48 89 c6             	mov    %rax,%rsi
    56f7:	31 c0                	xor    %eax,%eax
    56f9:	e8 62 cb ff ff       	call   2260 <__printf_chk@plt>
    56fe:	ba 05 00 00 00       	mov    $0x5,%edx
    5703:	48 8d 35 9a 20 00 00 	lea    0x209a(%rip),%rsi        # 77a4 <__cxa_finalize@plt+0x54a4>
    570a:	31 ff                	xor    %edi,%edi
    570c:	e8 df c9 ff ff       	call   20f0 <dcgettext@plt>
    5711:	48 8d 0d d8 1a 00 00 	lea    0x1ad8(%rip),%rcx        # 71f0 <__cxa_finalize@plt+0x4ef0>
    5718:	bf 01 00 00 00       	mov    $0x1,%edi
    571d:	48 8d 15 74 19 00 00 	lea    0x1974(%rip),%rdx        # 7098 <__cxa_finalize@plt+0x4d98>
    5724:	48 89 c6             	mov    %rax,%rsi
    5727:	31 c0                	xor    %eax,%eax
    5729:	e8 32 cb ff ff       	call   2260 <__printf_chk@plt>
    572e:	ba 05 00 00 00       	mov    $0x5,%edx
    5733:	48 8d 35 be 22 00 00 	lea    0x22be(%rip),%rsi        # 79f8 <__cxa_finalize@plt+0x56f8>
    573a:	31 ff                	xor    %edi,%edi
    573c:	e8 af c9 ff ff       	call   20f0 <dcgettext@plt>
    5741:	48 8d 15 70 20 00 00 	lea    0x2070(%rip),%rdx        # 77b8 <__cxa_finalize@plt+0x54b8>
    5748:	bf 01 00 00 00       	mov    $0x1,%edi
    574d:	48 83 c4 08          	add    $0x8,%rsp
    5751:	48 89 c6             	mov    %rax,%rsi
    5754:	31 c0                	xor    %eax,%eax
    5756:	e9 05 cb ff ff       	jmp    2260 <__printf_chk@plt>
    575b:	0f 1f 44 00 00       	nopl   0x0(%rax,%rax,1)
    5760:	41 54                	push   %r12
    5762:	49 89 d4             	mov    %rdx,%r12
    5765:	55                   	push   %rbp
    5766:	48 89 f5             	mov    %rsi,%rbp
    5769:	53                   	push   %rbx
    576a:	48 89 fb             	mov    %rdi,%rbx
    576d:	e8 2e c9 ff ff       	call   20a0 <reallocarray@plt>
    5772:	48 85 c0             	test   %rax,%rax
    5775:	74 09                	je     5780 <__cxa_finalize@plt+0x3480>
    5777:	5b                   	pop    %rbx
    5778:	5d                   	pop    %rbp
    5779:	41 5c                	pop    %r12
    577b:	c3                   	ret
    577c:	0f 1f 40 00          	nopl   0x0(%rax)
    5780:	48 85 db             	test   %rbx,%rbx
    5783:	74 0a                	je     578f <__cxa_finalize@plt+0x348f>
    5785:	48 85 ed             	test   %rbp,%rbp
    5788:	74 ed                	je     5777 <__cxa_finalize@plt+0x3477>
    578a:	4d 85 e4             	test   %r12,%r12
    578d:	74 e8                	je     5777 <__cxa_finalize@plt+0x3477>
    578f:	e8 3c 05 00 00       	call   5cd0 <__cxa_finalize@plt+0x39d0>
    5794:	66 66 2e 0f 1f 84 00 	data16 cs nopw 0x0(%rax,%rax,1)
    579b:	00 00 00 00 
    579f:	90                   	nop
    57a0:	48 83 ec 08          	sub    $0x8,%rsp
    57a4:	e8 57 ca ff ff       	call   2200 <malloc@plt>
    57a9:	48 85 c0             	test   %rax,%rax
    57ac:	74 05                	je     57b3 <__cxa_finalize@plt+0x34b3>
    57ae:	48 83 c4 08          	add    $0x8,%rsp
    57b2:	c3                   	ret
    57b3:	e8 18 05 00 00       	call   5cd0 <__cxa_finalize@plt+0x39d0>
    57b8:	0f 1f 84 00 00 00 00 	nopl   0x0(%rax,%rax,1)
    57bf:	00 
    57c0:	48 83 ec 08          	sub    $0x8,%rsp
    57c4:	e8 37 ca ff ff       	call   2200 <malloc@plt>
    57c9:	48 85 c0             	test   %rax,%rax
    57cc:	74 05                	je     57d3 <__cxa_finalize@plt+0x34d3>
    57ce:	48 83 c4 08          	add    $0x8,%rsp
    57d2:	c3                   	ret
    57d3:	e8 f8 04 00 00       	call   5cd0 <__cxa_finalize@plt+0x39d0>
    57d8:	0f 1f 84 00 00 00 00 	nopl   0x0(%rax,%rax,1)
    57df:	00 
    57e0:	48 83 ec 08          	sub    $0x8,%rsp
    57e4:	e8 17 ca ff ff       	call   2200 <malloc@plt>
    57e9:	48 85 c0             	test   %rax,%rax
    57ec:	74 05                	je     57f3 <__cxa_finalize@plt+0x34f3>
    57ee:	48 83 c4 08          	add    $0x8,%rsp
    57f2:	c3                   	ret
    57f3:	e8 d8 04 00 00       	call   5cd0 <__cxa_finalize@plt+0x39d0>
    57f8:	0f 1f 84 00 00 00 00 	nopl   0x0(%rax,%rax,1)
    57ff:	00 
    5800:	55                   	push   %rbp
    5801:	48 89 fd             	mov    %rdi,%rbp
    5804:	53                   	push   %rbx
    5805:	48 89 f3             	mov    %rsi,%rbx
    5808:	48 83 ec 08          	sub    $0x8,%rsp
    580c:	e8 2f ca ff ff       	call   2240 <realloc@plt>
    5811:	48 85 c0             	test   %rax,%rax
    5814:	74 07                	je     581d <__cxa_finalize@plt+0x351d>
    5816:	48 83 c4 08          	add    $0x8,%rsp
    581a:	5b                   	pop    %rbx
    581b:	5d                   	pop    %rbp
    581c:	c3                   	ret
    581d:	48 85 ed             	test   %rbp,%rbp
    5820:	74 05                	je     5827 <__cxa_finalize@plt+0x3527>
    5822:	48 85 db             	test   %rbx,%rbx
    5825:	74 ef                	je     5816 <__cxa_finalize@plt+0x3516>
    5827:	e8 a4 04 00 00       	call   5cd0 <__cxa_finalize@plt+0x39d0>
    582c:	0f 1f 40 00          	nopl   0x0(%rax)
    5830:	48 83 ec 08          	sub    $0x8,%rsp
    5834:	31 c0                	xor    %eax,%eax
    5836:	48 85 f6             	test   %rsi,%rsi
    5839:	0f 94 c0             	sete   %al
    583c:	48 09 c6             	or     %rax,%rsi
    583f:	e8 fc c9 ff ff       	call   2240 <realloc@plt>
    5844:	48 85 c0             	test   %rax,%rax
    5847:	74 05                	je     584e <__cxa_finalize@plt+0x354e>
    5849:	48 83 c4 08          	add    $0x8,%rsp
    584d:	c3                   	ret
    584e:	e8 7d 04 00 00       	call   5cd0 <__cxa_finalize@plt+0x39d0>
    5853:	66 66 2e 0f 1f 84 00 	data16 cs nopw 0x0(%rax,%rax,1)
    585a:	00 00 00 00 
    585e:	66 90                	xchg   %ax,%ax
    5860:	41 54                	push   %r12
    5862:	49 89 d4             	mov    %rdx,%r12
    5865:	55                   	push   %rbp
    5866:	48 89 f5             	mov    %rsi,%rbp
    5869:	53                   	push   %rbx
    586a:	48 89 fb             	mov    %rdi,%rbx
    586d:	e8 2e c8 ff ff       	call   20a0 <reallocarray@plt>
    5872:	48 85 c0             	test   %rax,%rax
    5875:	74 09                	je     5880 <__cxa_finalize@plt+0x3580>
    5877:	5b                   	pop    %rbx
    5878:	5d                   	pop    %rbp
    5879:	41 5c                	pop    %r12
    587b:	c3                   	ret
    587c:	0f 1f 40 00          	nopl   0x0(%rax)
    5880:	48 85 db             	test   %rbx,%rbx
    5883:	74 0a                	je     588f <__cxa_finalize@plt+0x358f>
    5885:	48 85 ed             	test   %rbp,%rbp
    5888:	74 ed                	je     5877 <__cxa_finalize@plt+0x3577>
    588a:	4d 85 e4             	test   %r12,%r12
    588d:	74 e8                	je     5877 <__cxa_finalize@plt+0x3577>
    588f:	e8 3c 04 00 00       	call   5cd0 <__cxa_finalize@plt+0x39d0>
    5894:	66 66 2e 0f 1f 84 00 	data16 cs nopw 0x0(%rax,%rax,1)
    589b:	00 00 00 00 
    589f:	90                   	nop
    58a0:	48 83 ec 08          	sub    $0x8,%rsp
    58a4:	48 85 f6             	test   %rsi,%rsi
    58a7:	74 17                	je     58c0 <__cxa_finalize@plt+0x35c0>
    58a9:	48 85 d2             	test   %rdx,%rdx
    58ac:	74 12                	je     58c0 <__cxa_finalize@plt+0x35c0>
    58ae:	e8 ed c7 ff ff       	call   20a0 <reallocarray@plt>
    58b3:	48 85 c0             	test   %rax,%rax
    58b6:	74 14                	je     58cc <__cxa_finalize@plt+0x35cc>
    58b8:	48 83 c4 08          	add    $0x8,%rsp
    58bc:	c3                   	ret
    58bd:	0f 1f 00             	nopl   (%rax)
    58c0:	be 01 00 00 00       	mov    $0x1,%esi
    58c5:	ba 01 00 00 00       	mov    $0x1,%edx
    58ca:	eb e2                	jmp    58ae <__cxa_finalize@plt+0x35ae>
    58cc:	e8 ff 03 00 00       	call   5cd0 <__cxa_finalize@plt+0x39d0>
    58d1:	66 66 2e 0f 1f 84 00 	data16 cs nopw 0x0(%rax,%rax,1)
    58d8:	00 00 00 00 
    58dc:	0f 1f 40 00          	nopl   0x0(%rax)
    58e0:	48 83 ec 08          	sub    $0x8,%rsp
    58e4:	48 89 f2             	mov    %rsi,%rdx
    58e7:	48 89 fe             	mov    %rdi,%rsi
    58ea:	31 ff                	xor    %edi,%edi
    58ec:	e8 af c7 ff ff       	call   20a0 <reallocarray@plt>
    58f1:	48 85 c0             	test   %rax,%rax
    58f4:	74 0a                	je     5900 <__cxa_finalize@plt+0x3600>
    58f6:	48 83 c4 08          	add    $0x8,%rsp
    58fa:	c3                   	ret
    58fb:	0f 1f 44 00 00       	nopl   0x0(%rax,%rax,1)
    5900:	e8 cb 03 00 00       	call   5cd0 <__cxa_finalize@plt+0x39d0>
    5905:	66 66 2e 0f 1f 84 00 	data16 cs nopw 0x0(%rax,%rax,1)
    590c:	00 00 00 00 
    5910:	48 83 ec 08          	sub    $0x8,%rsp
    5914:	48 85 ff             	test   %rdi,%rdi
    5917:	74 1f                	je     5938 <__cxa_finalize@plt+0x3638>
    5919:	48 85 f6             	test   %rsi,%rsi
    591c:	74 1a                	je     5938 <__cxa_finalize@plt+0x3638>
    591e:	48 89 f2             	mov    %rsi,%rdx
    5921:	48 89 fe             	mov    %rdi,%rsi
    5924:	31 ff                	xor    %edi,%edi
    5926:	e8 75 c7 ff ff       	call   20a0 <reallocarray@plt>
    592b:	48 85 c0             	test   %rax,%rax
    592e:	74 14                	je     5944 <__cxa_finalize@plt+0x3644>
    5930:	48 83 c4 08          	add    $0x8,%rsp
    5934:	c3                   	ret
    5935:	0f 1f 00             	nopl   (%rax)
    5938:	be 01 00 00 00       	mov    $0x1,%esi
    593d:	ba 01 00 00 00       	mov    $0x1,%edx
    5942:	eb e0                	jmp    5924 <__cxa_finalize@plt+0x3624>
    5944:	e8 87 03 00 00       	call   5cd0 <__cxa_finalize@plt+0x39d0>
    5949:	0f 1f 80 00 00 00 00 	nopl   0x0(%rax)
    5950:	55                   	push   %rbp
    5951:	48 89 f5             	mov    %rsi,%rbp
    5954:	53                   	push   %rbx
    5955:	48 83 ec 08          	sub    $0x8,%rsp
    5959:	48 8b 1e             	mov    (%rsi),%rbx
    595c:	48 85 ff             	test   %rdi,%rdi
    595f:	74 3f                	je     59a0 <__cxa_finalize@plt+0x36a0>
    5961:	48 89 d8             	mov    %rbx,%rax
    5964:	48 d1 e8             	shr    %rax
    5967:	48 83 c0 01          	add    $0x1,%rax
    596b:	48 01 c3             	add    %rax,%rbx
    596e:	72 25                	jb     5995 <__cxa_finalize@plt+0x3695>
    5970:	ba 01 00 00 00       	mov    $0x1,%edx
    5975:	48 89 de             	mov    %rbx,%rsi
    5978:	e8 23 c7 ff ff       	call   20a0 <reallocarray@plt>
    597d:	48 85 c0             	test   %rax,%rax
    5980:	74 0e                	je     5990 <__cxa_finalize@plt+0x3690>
    5982:	48 89 5d 00          	mov    %rbx,0x0(%rbp)
    5986:	48 83 c4 08          	add    $0x8,%rsp
    598a:	5b                   	pop    %rbx
    598b:	5d                   	pop    %rbp
    598c:	c3                   	ret
    598d:	0f 1f 00             	nopl   (%rax)
    5990:	48 85 db             	test   %rbx,%rbx
    5993:	74 ed                	je     5982 <__cxa_finalize@plt+0x3682>
    5995:	e8 36 03 00 00       	call   5cd0 <__cxa_finalize@plt+0x39d0>
    599a:	66 0f 1f 44 00 00    	nopw   0x0(%rax,%rax,1)
    59a0:	48 85 db             	test   %rbx,%rbx
    59a3:	b8 80 00 00 00       	mov    $0x80,%eax
    59a8:	ba 01 00 00 00       	mov    $0x1,%edx
    59ad:	48 0f 44 d8          	cmove  %rax,%rbx
    59b1:	48 89 de             	mov    %rbx,%rsi
    59b4:	e8 e7 c6 ff ff       	call   20a0 <reallocarray@plt>
    59b9:	48 85 c0             	test   %rax,%rax
    59bc:	74 d7                	je     5995 <__cxa_finalize@plt+0x3695>
    59be:	48 89 5d 00          	mov    %rbx,0x0(%rbp)
    59c2:	48 83 c4 08          	add    $0x8,%rsp
    59c6:	5b                   	pop    %rbx
    59c7:	5d                   	pop    %rbp
    59c8:	c3                   	ret
    59c9:	0f 1f 80 00 00 00 00 	nopl   0x0(%rax)
    59d0:	41 54                	push   %r12
    59d2:	49 89 d4             	mov    %rdx,%r12
    59d5:	55                   	push   %rbp
    59d6:	48 89 f5             	mov    %rsi,%rbp
    59d9:	53                   	push   %rbx
    59da:	48 8b 1e             	mov    (%rsi),%rbx
    59dd:	48 85 ff             	test   %rdi,%rdi
    59e0:	74 3e                	je     5a20 <__cxa_finalize@plt+0x3720>
    59e2:	48 89 d8             	mov    %rbx,%rax
    59e5:	48 d1 e8             	shr    %rax
    59e8:	48 83 c0 01          	add    $0x1,%rax
    59ec:	48 01 c3             	add    %rax,%rbx
    59ef:	72 29                	jb     5a1a <__cxa_finalize@plt+0x371a>
    59f1:	48 89 de             	mov    %rbx,%rsi
    59f4:	e8 a7 c6 ff ff       	call   20a0 <reallocarray@plt>
    59f9:	48 85 c0             	test   %rax,%rax
    59fc:	74 12                	je     5a10 <__cxa_finalize@plt+0x3710>
    59fe:	48 89 5d 00          	mov    %rbx,0x0(%rbp)
    5a02:	5b                   	pop    %rbx
    5a03:	5d                   	pop    %rbp
    5a04:	41 5c                	pop    %r12
    5a06:	c3                   	ret
    5a07:	66 0f 1f 84 00 00 00 	nopw   0x0(%rax,%rax,1)
    5a0e:	00 00 
    5a10:	48 85 db             	test   %rbx,%rbx
    5a13:	74 e9                	je     59fe <__cxa_finalize@plt+0x36fe>
    5a15:	4d 85 e4             	test   %r12,%r12
    5a18:	74 e4                	je     59fe <__cxa_finalize@plt+0x36fe>
    5a1a:	e8 b1 02 00 00       	call   5cd0 <__cxa_finalize@plt+0x39d0>
    5a1f:	90                   	nop
    5a20:	48 85 db             	test   %rbx,%rbx
    5a23:	75 1a                	jne    5a3f <__cxa_finalize@plt+0x373f>
    5a25:	31 d2                	xor    %edx,%edx
    5a27:	b8 80 00 00 00       	mov    $0x80,%eax
    5a2c:	49 f7 f4             	div    %r12
    5a2f:	31 d2                	xor    %edx,%edx
    5a31:	49 81 fc 80 00 00 00 	cmp    $0x80,%r12
    5a38:	0f 97 c2             	seta   %dl
    5a3b:	48 8d 1c 10          	lea    (%rax,%rdx,1),%rbx
    5a3f:	31 ff                	xor    %edi,%edi
    5a41:	4c 89 e2             	mov    %r12,%rdx
    5a44:	48 89 de             	mov    %rbx,%rsi
    5a47:	e8 54 c6 ff ff       	call   20a0 <reallocarray@plt>
    5a4c:	48 85 c0             	test   %rax,%rax
    5a4f:	74 c9                	je     5a1a <__cxa_finalize@plt+0x371a>
    5a51:	48 89 5d 00          	mov    %rbx,0x0(%rbp)
    5a55:	5b                   	pop    %rbx
    5a56:	5d                   	pop    %rbp
    5a57:	41 5c                	pop    %r12
    5a59:	c3                   	ret
    5a5a:	66 0f 1f 44 00 00    	nopw   0x0(%rax,%rax,1)
    5a60:	41 55                	push   %r13
    5a62:	49 89 fd             	mov    %rdi,%r13
    5a65:	48 89 d7             	mov    %rdx,%rdi
    5a68:	41 54                	push   %r12
    5a6a:	49 89 f4             	mov    %rsi,%r12
    5a6d:	48 89 ce             	mov    %rcx,%rsi
    5a70:	55                   	push   %rbp
    5a71:	53                   	push   %rbx
    5a72:	48 83 ec 08          	sub    $0x8,%rsp
    5a76:	49 8b 0c 24          	mov    (%r12),%rcx
    5a7a:	48 89 cb             	mov    %rcx,%rbx
    5a7d:	48 d1 fb             	sar    %rbx
    5a80:	48 01 cb             	add    %rcx,%rbx
    5a83:	0f 80 b4 00 00 00    	jo     5b3d <__cxa_finalize@plt+0x383d>
    5a89:	48 39 f3             	cmp    %rsi,%rbx
    5a8c:	48 89 f0             	mov    %rsi,%rax
    5a8f:	48 0f 4e c3          	cmovle %rbx,%rax
    5a93:	48 85 f6             	test   %rsi,%rsi
    5a96:	48 0f 49 d8          	cmovns %rax,%rbx
    5a9a:	48 89 dd             	mov    %rbx,%rbp
    5a9d:	49 0f af e8          	imul   %r8,%rbp
    5aa1:	0f 80 8a 00 00 00    	jo     5b31 <__cxa_finalize@plt+0x3831>
    5aa7:	48 83 fd 7f          	cmp    $0x7f,%rbp
    5aab:	7e 53                	jle    5b00 <__cxa_finalize@plt+0x3800>
    5aad:	4d 85 ed             	test   %r13,%r13
    5ab0:	74 66                	je     5b18 <__cxa_finalize@plt+0x3818>
    5ab2:	66 0f 1f 44 00 00    	nopw   0x0(%rax,%rax,1)
    5ab8:	48 89 d8             	mov    %rbx,%rax
    5abb:	48 29 c8             	sub    %rcx,%rax
    5abe:	48 39 f8             	cmp    %rdi,%rax
    5ac1:	7d 1b                	jge    5ade <__cxa_finalize@plt+0x37de>
    5ac3:	48 01 f9             	add    %rdi,%rcx
    5ac6:	48 89 cb             	mov    %rcx,%rbx
    5ac9:	70 61                	jo     5b2c <__cxa_finalize@plt+0x382c>
    5acb:	48 85 f6             	test   %rsi,%rsi
    5ace:	78 05                	js     5ad5 <__cxa_finalize@plt+0x37d5>
    5ad0:	48 39 f1             	cmp    %rsi,%rcx
    5ad3:	7f 57                	jg     5b2c <__cxa_finalize@plt+0x382c>
    5ad5:	49 0f af c8          	imul   %r8,%rcx
    5ad9:	48 89 cd             	mov    %rcx,%rbp
    5adc:	70 4e                	jo     5b2c <__cxa_finalize@plt+0x382c>
    5ade:	48 89 ee             	mov    %rbp,%rsi
    5ae1:	4c 89 ef             	mov    %r13,%rdi
    5ae4:	e8 57 c7 ff ff       	call   2240 <realloc@plt>
    5ae9:	48 85 c0             	test   %rax,%rax
    5aec:	74 34                	je     5b22 <__cxa_finalize@plt+0x3822>
    5aee:	49 89 1c 24          	mov    %rbx,(%r12)
    5af2:	48 83 c4 08          	add    $0x8,%rsp
    5af6:	5b                   	pop    %rbx
    5af7:	5d                   	pop    %rbp
    5af8:	41 5c                	pop    %r12
    5afa:	41 5d                	pop    %r13
    5afc:	c3                   	ret
    5afd:	0f 1f 00             	nopl   (%rax)
    5b00:	bd 80 00 00 00       	mov    $0x80,%ebp
    5b05:	48 89 e8             	mov    %rbp,%rax
    5b08:	48 99                	cqto
    5b0a:	49 f7 f8             	idiv   %r8
    5b0d:	48 89 c3             	mov    %rax,%rbx
    5b10:	48 29 d5             	sub    %rdx,%rbp
    5b13:	4d 85 ed             	test   %r13,%r13
    5b16:	75 a0                	jne    5ab8 <__cxa_finalize@plt+0x37b8>
    5b18:	49 c7 04 24 00 00 00 	movq   $0x0,(%r12)
    5b1f:	00 
    5b20:	eb 96                	jmp    5ab8 <__cxa_finalize@plt+0x37b8>
    5b22:	4d 85 ed             	test   %r13,%r13
    5b25:	74 05                	je     5b2c <__cxa_finalize@plt+0x382c>
    5b27:	48 85 ed             	test   %rbp,%rbp
    5b2a:	74 c2                	je     5aee <__cxa_finalize@plt+0x37ee>
    5b2c:	e8 9f 01 00 00       	call   5cd0 <__cxa_finalize@plt+0x39d0>
    5b31:	48 bd ff ff ff ff ff 	movabs $0x7fffffffffffffff,%rbp
    5b38:	ff ff 7f 
    5b3b:	eb c8                	jmp    5b05 <__cxa_finalize@plt+0x3805>
    5b3d:	48 bb ff ff ff ff ff 	movabs $0x7fffffffffffffff,%rbx
    5b44:	ff ff 7f 
    5b47:	e9 3d ff ff ff       	jmp    5a89 <__cxa_finalize@plt+0x3789>
    5b4c:	0f 1f 40 00          	nopl   0x0(%rax)
    5b50:	48 83 ec 08          	sub    $0x8,%rsp
    5b54:	be 01 00 00 00       	mov    $0x1,%esi
    5b59:	e8 52 c6 ff ff       	call   21b0 <calloc@plt>
    5b5e:	48 85 c0             	test   %rax,%rax
    5b61:	74 05                	je     5b68 <__cxa_finalize@plt+0x3868>
    5b63:	48 83 c4 08          	add    $0x8,%rsp
    5b67:	c3                   	ret
    5b68:	e8 63 01 00 00       	call   5cd0 <__cxa_finalize@plt+0x39d0>
    5b6d:	0f 1f 00             	nopl   (%rax)
    5b70:	48 83 ec 08          	sub    $0x8,%rsp
    5b74:	be 01 00 00 00       	mov    $0x1,%esi
    5b79:	e8 32 c6 ff ff       	call   21b0 <calloc@plt>
    5b7e:	48 85 c0             	test   %rax,%rax
    5b81:	74 05                	je     5b88 <__cxa_finalize@plt+0x3888>
    5b83:	48 83 c4 08          	add    $0x8,%rsp
    5b87:	c3                   	ret
    5b88:	e8 43 01 00 00       	call   5cd0 <__cxa_finalize@plt+0x39d0>
    5b8d:	0f 1f 00             	nopl   (%rax)
    5b90:	48 83 ec 08          	sub    $0x8,%rsp
    5b94:	e8 17 c6 ff ff       	call   21b0 <calloc@plt>
    5b99:	48 85 c0             	test   %rax,%rax
    5b9c:	74 05                	je     5ba3 <__cxa_finalize@plt+0x38a3>
    5b9e:	48 83 c4 08          	add    $0x8,%rsp
    5ba2:	c3                   	ret
    5ba3:	e8 28 01 00 00       	call   5cd0 <__cxa_finalize@plt+0x39d0>
    5ba8:	0f 1f 84 00 00 00 00 	nopl   0x0(%rax,%rax,1)
    5baf:	00 
    5bb0:	48 83 ec 08          	sub    $0x8,%rsp
    5bb4:	e8 f7 c5 ff ff       	call   21b0 <calloc@plt>
    5bb9:	48 85 c0             	test   %rax,%rax
    5bbc:	74 05                	je     5bc3 <__cxa_finalize@plt+0x38c3>
    5bbe:	48 83 c4 08          	add    $0x8,%rsp
    5bc2:	c3                   	ret
    5bc3:	e8 08 01 00 00       	call   5cd0 <__cxa_finalize@plt+0x39d0>
    5bc8:	0f 1f 84 00 00 00 00 	nopl   0x0(%rax,%rax,1)
    5bcf:	00 
    5bd0:	55                   	push   %rbp
    5bd1:	48 89 fd             	mov    %rdi,%rbp
    5bd4:	48 89 f7             	mov    %rsi,%rdi
    5bd7:	53                   	push   %rbx
    5bd8:	48 89 f3             	mov    %rsi,%rbx
    5bdb:	48 83 ec 08          	sub    $0x8,%rsp
    5bdf:	e8 1c c6 ff ff       	call   2200 <malloc@plt>
    5be4:	48 85 c0             	test   %rax,%rax
    5be7:	74 14                	je     5bfd <__cxa_finalize@plt+0x38fd>
    5be9:	48 83 c4 08          	add    $0x8,%rsp
    5bed:	48 89 da             	mov    %rbx,%rdx
    5bf0:	48 89 ee             	mov    %rbp,%rsi
    5bf3:	48 89 c7             	mov    %rax,%rdi
    5bf6:	5b                   	pop    %rbx
    5bf7:	5d                   	pop    %rbp
    5bf8:	e9 e3 c5 ff ff       	jmp    21e0 <memcpy@plt>
    5bfd:	e8 ce 00 00 00       	call   5cd0 <__cxa_finalize@plt+0x39d0>
    5c02:	66 66 2e 0f 1f 84 00 	data16 cs nopw 0x0(%rax,%rax,1)
    5c09:	00 00 00 00 
    5c0d:	0f 1f 00             	nopl   (%rax)
    5c10:	55                   	push   %rbp
    5c11:	48 89 fd             	mov    %rdi,%rbp
    5c14:	48 89 f7             	mov    %rsi,%rdi
    5c17:	53                   	push   %rbx
    5c18:	48 89 f3             	mov    %rsi,%rbx
    5c1b:	48 83 ec 08          	sub    $0x8,%rsp
    5c1f:	e8 dc c5 ff ff       	call   2200 <malloc@plt>
    5c24:	48 85 c0             	test   %rax,%rax
    5c27:	74 14                	je     5c3d <__cxa_finalize@plt+0x393d>
    5c29:	48 83 c4 08          	add    $0x8,%rsp
    5c2d:	48 89 da             	mov    %rbx,%rdx
    5c30:	48 89 ee             	mov    %rbp,%rsi
    5c33:	48 89 c7             	mov    %rax,%rdi
    5c36:	5b                   	pop    %rbx
    5c37:	5d                   	pop    %rbp
    5c38:	e9 a3 c5 ff ff       	jmp    21e0 <memcpy@plt>
    5c3d:	e8 8e 00 00 00       	call   5cd0 <__cxa_finalize@plt+0x39d0>
    5c42:	66 66 2e 0f 1f 84 00 	data16 cs nopw 0x0(%rax,%rax,1)
    5c49:	00 00 00 00 
    5c4d:	0f 1f 00             	nopl   (%rax)
    5c50:	55                   	push   %rbp
    5c51:	48 89 fd             	mov    %rdi,%rbp
    5c54:	48 8d 7e 01          	lea    0x1(%rsi),%rdi
    5c58:	53                   	push   %rbx
    5c59:	48 89 f3             	mov    %rsi,%rbx
    5c5c:	48 83 ec 08          	sub    $0x8,%rsp
    5c60:	e8 9b c5 ff ff       	call   2200 <malloc@plt>
    5c65:	48 85 c0             	test   %rax,%rax
    5c68:	74 18                	je     5c82 <__cxa_finalize@plt+0x3982>
    5c6a:	c6 04 18 00          	movb   $0x0,(%rax,%rbx,1)
    5c6e:	48 83 c4 08          	add    $0x8,%rsp
    5c72:	48 89 da             	mov    %rbx,%rdx
    5c75:	48 89 ee             	mov    %rbp,%rsi
    5c78:	5b                   	pop    %rbx
    5c79:	48 89 c7             	mov    %rax,%rdi
    5c7c:	5d                   	pop    %rbp
    5c7d:	e9 5e c5 ff ff       	jmp    21e0 <memcpy@plt>
    5c82:	e8 49 00 00 00       	call   5cd0 <__cxa_finalize@plt+0x39d0>
    5c87:	66 0f 1f 84 00 00 00 	nopw   0x0(%rax,%rax,1)
    5c8e:	00 00 
    5c90:	55                   	push   %rbp
    5c91:	53                   	push   %rbx
    5c92:	48 89 fb             	mov    %rdi,%rbx
    5c95:	48 83 ec 08          	sub    $0x8,%rsp
    5c99:	e8 72 c4 ff ff       	call   2110 <strlen@plt>
    5c9e:	48 8d 68 01          	lea    0x1(%rax),%rbp
    5ca2:	48 89 ef             	mov    %rbp,%rdi
    5ca5:	e8 56 c5 ff ff       	call   2200 <malloc@plt>
    5caa:	48 85 c0             	test   %rax,%rax
    5cad:	74 14                	je     5cc3 <__cxa_finalize@plt+0x39c3>
    5caf:	48 83 c4 08          	add    $0x8,%rsp
    5cb3:	48 89 ea             	mov    %rbp,%rdx
    5cb6:	48 89 de             	mov    %rbx,%rsi
    5cb9:	48 89 c7             	mov    %rax,%rdi
    5cbc:	5b                   	pop    %rbx
    5cbd:	5d                   	pop    %rbp
    5cbe:	e9 1d c5 ff ff       	jmp    21e0 <memcpy@plt>
    5cc3:	e8 08 00 00 00       	call   5cd0 <__cxa_finalize@plt+0x39d0>
    5cc8:	0f 1f 84 00 00 00 00 	nopl   0x0(%rax,%rax,1)
    5ccf:	00 
    5cd0:	48 83 ec 08          	sub    $0x8,%rsp
    5cd4:	ba 05 00 00 00       	mov    $0x5,%edx
    5cd9:	48 8d 35 af 1d 00 00 	lea    0x1daf(%rip),%rsi        # 7a8f <__cxa_finalize@plt+0x578f>
    5ce0:	31 ff                	xor    %edi,%edi
    5ce2:	e8 09 c4 ff ff       	call   20f0 <dcgettext@plt>
    5ce7:	8b 3d ab 44 00 00    	mov    0x44ab(%rip),%edi        # a198 <__cxa_finalize@plt+0x7e98>
    5ced:	48 8d 15 d9 15 00 00 	lea    0x15d9(%rip),%rdx        # 72cd <__cxa_finalize@plt+0x4fcd>
    5cf4:	31 f6                	xor    %esi,%esi
    5cf6:	48 89 c1             	mov    %rax,%rcx
    5cf9:	31 c0                	xor    %eax,%eax
    5cfb:	e8 70 c5 ff ff       	call   2270 <error@plt>
    5d00:	e8 3b c3 ff ff       	call   2040 <abort@plt>
    5d05:	66 2e 0f 1f 84 00 00 	cs nopw 0x0(%rax,%rax,1)
    5d0c:	00 00 00 
    5d0f:	90                   	nop
    5d10:	41 54                	push   %r12
    5d12:	55                   	push   %rbp
    5d13:	53                   	push   %rbx
    5d14:	48 89 fb             	mov    %rdi,%rbx
    5d17:	e8 64 c3 ff ff       	call   2080 <__fpending@plt>
    5d1c:	8b 2b                	mov    (%rbx),%ebp
    5d1e:	48 89 df             	mov    %rbx,%rdi
    5d21:	49 89 c4             	mov    %rax,%r12
    5d24:	83 e5 20             	and    $0x20,%ebp
    5d27:	e8 44 00 00 00       	call   5d70 <__cxa_finalize@plt+0x3a70>
    5d2c:	85 ed                	test   %ebp,%ebp
    5d2e:	75 20                	jne    5d50 <__cxa_finalize@plt+0x3a50>
    5d30:	85 c0                	test   %eax,%eax
    5d32:	74 15                	je     5d49 <__cxa_finalize@plt+0x3a49>
    5d34:	4d 85 e4             	test   %r12,%r12
    5d37:	75 26                	jne    5d5f <__cxa_finalize@plt+0x3a5f>
    5d39:	e8 12 c3 ff ff       	call   2050 <__errno_location@plt>
    5d3e:	83 38 09             	cmpl   $0x9,(%rax)
    5d41:	0f 95 c0             	setne  %al
    5d44:	0f b6 c0             	movzbl %al,%eax
    5d47:	f7 d8                	neg    %eax
    5d49:	5b                   	pop    %rbx
    5d4a:	5d                   	pop    %rbp
    5d4b:	41 5c                	pop    %r12
    5d4d:	c3                   	ret
    5d4e:	66 90                	xchg   %ax,%ax
    5d50:	85 c0                	test   %eax,%eax
    5d52:	75 0b                	jne    5d5f <__cxa_finalize@plt+0x3a5f>
    5d54:	e8 f7 c2 ff ff       	call   2050 <__errno_location@plt>
    5d59:	c7 00 00 00 00 00    	movl   $0x0,(%rax)
    5d5f:	b8 ff ff ff ff       	mov    $0xffffffff,%eax
    5d64:	eb e3                	jmp    5d49 <__cxa_finalize@plt+0x3a49>
    5d66:	66 2e 0f 1f 84 00 00 	cs nopw 0x0(%rax,%rax,1)
    5d6d:	00 00 00 
    5d70:	41 54                	push   %r12
    5d72:	55                   	push   %rbp
    5d73:	53                   	push   %rbx
    5d74:	48 89 fb             	mov    %rdi,%rbx
    5d77:	e8 74 c4 ff ff       	call   21f0 <fileno@plt>
    5d7c:	48 89 df             	mov    %rbx,%rdi
    5d7f:	85 c0                	test   %eax,%eax
    5d81:	78 54                	js     5dd7 <__cxa_finalize@plt+0x3ad7>
    5d83:	e8 a8 c4 ff ff       	call   2230 <__freading@plt>
    5d88:	85 c0                	test   %eax,%eax
    5d8a:	75 2c                	jne    5db8 <__cxa_finalize@plt+0x3ab8>
    5d8c:	48 89 df             	mov    %rbx,%rdi
    5d8f:	e8 5c 00 00 00       	call   5df0 <__cxa_finalize@plt+0x3af0>
    5d94:	85 c0                	test   %eax,%eax
    5d96:	74 3c                	je     5dd4 <__cxa_finalize@plt+0x3ad4>
    5d98:	e8 b3 c2 ff ff       	call   2050 <__errno_location@plt>
    5d9d:	48 89 df             	mov    %rbx,%rdi
    5da0:	44 8b 20             	mov    (%rax),%r12d
    5da3:	48 89 c5             	mov    %rax,%rbp
    5da6:	e8 15 c3 ff ff       	call   20c0 <fclose@plt>
    5dab:	45 85 e4             	test   %r12d,%r12d
    5dae:	75 30                	jne    5de0 <__cxa_finalize@plt+0x3ae0>
    5db0:	5b                   	pop    %rbx
    5db1:	5d                   	pop    %rbp
    5db2:	41 5c                	pop    %r12
    5db4:	c3                   	ret
    5db5:	0f 1f 00             	nopl   (%rax)
    5db8:	48 89 df             	mov    %rbx,%rdi
    5dbb:	e8 30 c4 ff ff       	call   21f0 <fileno@plt>
    5dc0:	31 f6                	xor    %esi,%esi
    5dc2:	ba 01 00 00 00       	mov    $0x1,%edx
    5dc7:	89 c7                	mov    %eax,%edi
    5dc9:	e8 92 c3 ff ff       	call   2160 <lseek@plt>
    5dce:	48 83 f8 ff          	cmp    $0xffffffffffffffff,%rax
    5dd2:	75 b8                	jne    5d8c <__cxa_finalize@plt+0x3a8c>
    5dd4:	48 89 df             	mov    %rbx,%rdi
    5dd7:	5b                   	pop    %rbx
    5dd8:	5d                   	pop    %rbp
    5dd9:	41 5c                	pop    %r12
    5ddb:	e9 e0 c2 ff ff       	jmp    20c0 <fclose@plt>
    5de0:	44 89 65 00          	mov    %r12d,0x0(%rbp)
    5de4:	b8 ff ff ff ff       	mov    $0xffffffff,%eax
    5de9:	eb c5                	jmp    5db0 <__cxa_finalize@plt+0x3ab0>
    5deb:	0f 1f 44 00 00       	nopl   0x0(%rax,%rax,1)
    5df0:	53                   	push   %rbx
    5df1:	48 89 fb             	mov    %rdi,%rbx
    5df4:	48 85 ff             	test   %rdi,%rdi
    5df7:	74 09                	je     5e02 <__cxa_finalize@plt+0x3b02>
    5df9:	e8 32 c4 ff ff       	call   2230 <__freading@plt>
    5dfe:	85 c0                	test   %eax,%eax
    5e00:	75 0e                	jne    5e10 <__cxa_finalize@plt+0x3b10>
    5e02:	48 89 df             	mov    %rbx,%rdi
    5e05:	5b                   	pop    %rbx
    5e06:	e9 05 c4 ff ff       	jmp    2210 <fflush@plt>
    5e0b:	0f 1f 44 00 00       	nopl   0x0(%rax,%rax,1)
    5e10:	f7 03 00 01 00 00    	testl  $0x100,(%rbx)
    5e16:	74 ea                	je     5e02 <__cxa_finalize@plt+0x3b02>
    5e18:	48 89 df             	mov    %rbx,%rdi
    5e1b:	ba 01 00 00 00       	mov    $0x1,%edx
    5e20:	31 f6                	xor    %esi,%esi
    5e22:	e8 09 00 00 00       	call   5e30 <__cxa_finalize@plt+0x3b30>
    5e27:	48 89 df             	mov    %rbx,%rdi
    5e2a:	5b                   	pop    %rbx
    5e2b:	e9 e0 c3 ff ff       	jmp    2210 <fflush@plt>
    5e30:	53                   	push   %rbx
    5e31:	48 89 fb             	mov    %rdi,%rbx
    5e34:	48 83 ec 10          	sub    $0x10,%rsp
    5e38:	48 8b 47 08          	mov    0x8(%rdi),%rax
    5e3c:	48 39 47 10          	cmp    %rax,0x10(%rdi)
    5e40:	74 0e                	je     5e50 <__cxa_finalize@plt+0x3b50>
    5e42:	48 83 c4 10          	add    $0x10,%rsp
    5e46:	48 89 df             	mov    %rbx,%rdi
    5e49:	5b                   	pop    %rbx
    5e4a:	e9 31 c4 ff ff       	jmp    2280 <fseeko@plt>
    5e4f:	90                   	nop
    5e50:	48 8b 47 20          	mov    0x20(%rdi),%rax
    5e54:	48 39 47 28          	cmp    %rax,0x28(%rdi)
    5e58:	75 e8                	jne    5e42 <__cxa_finalize@plt+0x3b42>
    5e5a:	48 83 7f 48 00       	cmpq   $0x0,0x48(%rdi)
    5e5f:	75 e1                	jne    5e42 <__cxa_finalize@plt+0x3b42>
    5e61:	89 54 24 0c          	mov    %edx,0xc(%rsp)
    5e65:	48 89 34 24          	mov    %rsi,(%rsp)
    5e69:	e8 82 c3 ff ff       	call   21f0 <fileno@plt>
    5e6e:	8b 54 24 0c          	mov    0xc(%rsp),%edx
    5e72:	48 8b 34 24          	mov    (%rsp),%rsi
    5e76:	89 c7                	mov    %eax,%edi
    5e78:	e8 e3 c2 ff ff       	call   2160 <lseek@plt>
    5e7d:	48 83 f8 ff          	cmp    $0xffffffffffffffff,%rax
    5e81:	74 12                	je     5e95 <__cxa_finalize@plt+0x3b95>
    5e83:	83 23 ef             	andl   $0xffffffef,(%rbx)
    5e86:	48 89 83 90 00 00 00 	mov    %rax,0x90(%rbx)
    5e8d:	31 c0                	xor    %eax,%eax
    5e8f:	48 83 c4 10          	add    $0x10,%rsp
    5e93:	5b                   	pop    %rbx
    5e94:	c3                   	ret
    5e95:	83 c8 ff             	or     $0xffffffff,%eax
    5e98:	eb f5                	jmp    5e8f <__cxa_finalize@plt+0x3b8f>
    5e9a:	66 0f 1f 44 00 00    	nopw   0x0(%rax,%rax,1)
    5ea0:	48 83 ec 08          	sub    $0x8,%rsp
    5ea4:	bf 0e 00 00 00       	mov    $0xe,%edi
    5ea9:	e8 72 c3 ff ff       	call   2220 <nl_langinfo@plt>
    5eae:	48 85 c0             	test   %rax,%rax
    5eb1:	74 1d                	je     5ed0 <__cxa_finalize@plt+0x3bd0>
    5eb3:	80 38 00             	cmpb   $0x0,(%rax)
    5eb6:	48 8d 15 e3 1b 00 00 	lea    0x1be3(%rip),%rdx        # 7aa0 <__cxa_finalize@plt+0x57a0>
    5ebd:	48 0f 44 c2          	cmove  %rdx,%rax
    5ec1:	48 83 c4 08          	add    $0x8,%rsp
    5ec5:	c3                   	ret
    5ec6:	66 2e 0f 1f 84 00 00 	cs nopw 0x0(%rax,%rax,1)
    5ecd:	00 00 00 
    5ed0:	48 8d 05 c9 1b 00 00 	lea    0x1bc9(%rip),%rax        # 7aa0 <__cxa_finalize@plt+0x57a0>
    5ed7:	48 83 c4 08          	add    $0x8,%rsp
    5edb:	c3                   	ret
    5edc:	0f 1f 40 00          	nopl   0x0(%rax)
    5ee0:	41 55                	push   %r13
    5ee2:	49 89 f5             	mov    %rsi,%r13
    5ee5:	41 54                	push   %r12
    5ee7:	49 89 d4             	mov    %rdx,%r12
    5eea:	55                   	push   %rbp
    5eeb:	53                   	push   %rbx
    5eec:	48 89 fb             	mov    %rdi,%rbx
    5eef:	48 83 ec 18          	sub    $0x18,%rsp
    5ef3:	64 48 8b 04 25 28 00 	mov    %fs:0x28,%rax
    5efa:	00 00 
    5efc:	48 89 44 24 08       	mov    %rax,0x8(%rsp)
    5f01:	31 c0                	xor    %eax,%eax
    5f03:	48 85 ff             	test   %rdi,%rdi
    5f06:	48 8d 44 24 04       	lea    0x4(%rsp),%rax
    5f0b:	48 0f 44 d8          	cmove  %rax,%rbx
    5f0f:	48 89 df             	mov    %rbx,%rdi
    5f12:	e8 29 c2 ff ff       	call   2140 <mbrtowc@plt>
    5f17:	48 89 c5             	mov    %rax,%rbp
    5f1a:	48 83 f8 fd          	cmp    $0xfffffffffffffffd,%rax
    5f1e:	76 05                	jbe    5f25 <__cxa_finalize@plt+0x3c25>
    5f20:	4d 85 e4             	test   %r12,%r12
    5f23:	75 23                	jne    5f48 <__cxa_finalize@plt+0x3c48>
    5f25:	48 8b 44 24 08       	mov    0x8(%rsp),%rax
    5f2a:	64 48 2b 04 25 28 00 	sub    %fs:0x28,%rax
    5f31:	00 00 
    5f33:	75 2c                	jne    5f61 <__cxa_finalize@plt+0x3c61>
    5f35:	48 83 c4 18          	add    $0x18,%rsp
    5f39:	48 89 e8             	mov    %rbp,%rax
    5f3c:	5b                   	pop    %rbx
    5f3d:	5d                   	pop    %rbp
    5f3e:	41 5c                	pop    %r12
    5f40:	41 5d                	pop    %r13
    5f42:	c3                   	ret
    5f43:	0f 1f 44 00 00       	nopl   0x0(%rax,%rax,1)
    5f48:	31 ff                	xor    %edi,%edi
    5f4a:	e8 21 00 00 00       	call   5f70 <__cxa_finalize@plt+0x3c70>
    5f4f:	84 c0                	test   %al,%al
    5f51:	75 d2                	jne    5f25 <__cxa_finalize@plt+0x3c25>
    5f53:	41 0f b6 45 00       	movzbl 0x0(%r13),%eax
    5f58:	bd 01 00 00 00       	mov    $0x1,%ebp
    5f5d:	89 03                	mov    %eax,(%rbx)
    5f5f:	eb c4                	jmp    5f25 <__cxa_finalize@plt+0x3c25>
    5f61:	e8 ba c1 ff ff       	call   2120 <__stack_chk_fail@plt>
    5f66:	66 2e 0f 1f 84 00 00 	cs nopw 0x0(%rax,%rax,1)
    5f6d:	00 00 00 
    5f70:	48 81 ec 18 01 00 00 	sub    $0x118,%rsp
    5f77:	ba 01 01 00 00       	mov    $0x101,%edx
    5f7c:	64 48 8b 04 25 28 00 	mov    %fs:0x28,%rax
    5f83:	00 00 
    5f85:	48 89 84 24 08 01 00 	mov    %rax,0x108(%rsp)
    5f8c:	00 
    5f8d:	31 c0                	xor    %eax,%eax
    5f8f:	48 89 e6             	mov    %rsp,%rsi
    5f92:	e8 59 00 00 00       	call   5ff0 <__cxa_finalize@plt+0x3cf0>
    5f97:	89 c2                	mov    %eax,%edx
    5f99:	31 c0                	xor    %eax,%eax
    5f9b:	85 d2                	test   %edx,%edx
    5f9d:	75 15                	jne    5fb4 <__cxa_finalize@plt+0x3cb4>
    5f9f:	66 83 3c 24 43       	cmpw   $0x43,(%rsp)
    5fa4:	74 0e                	je     5fb4 <__cxa_finalize@plt+0x3cb4>
    5fa6:	81 3c 24 50 4f 53 49 	cmpl   $0x49534f50,(%rsp)
    5fad:	74 21                	je     5fd0 <__cxa_finalize@plt+0x3cd0>
    5faf:	b8 01 00 00 00       	mov    $0x1,%eax
    5fb4:	48 8b 94 24 08 01 00 	mov    0x108(%rsp),%rdx
    5fbb:	00 
    5fbc:	64 48 2b 14 25 28 00 	sub    %fs:0x28,%rdx
    5fc3:	00 00 
    5fc5:	75 15                	jne    5fdc <__cxa_finalize@plt+0x3cdc>
    5fc7:	48 81 c4 18 01 00 00 	add    $0x118,%rsp
    5fce:	c3                   	ret
    5fcf:	90                   	nop
    5fd0:	31 c0                	xor    %eax,%eax
    5fd2:	66 83 7c 24 04 58    	cmpw   $0x58,0x4(%rsp)
    5fd8:	75 d5                	jne    5faf <__cxa_finalize@plt+0x3caf>
    5fda:	eb d8                	jmp    5fb4 <__cxa_finalize@plt+0x3cb4>
    5fdc:	e8 3f c1 ff ff       	call   2120 <__stack_chk_fail@plt>
    5fe1:	66 2e 0f 1f 84 00 00 	cs nopw 0x0(%rax,%rax,1)
    5fe8:	00 00 00 
    5feb:	0f 1f 44 00 00       	nopl   0x0(%rax,%rax,1)
    5ff0:	41 54                	push   %r12
    5ff2:	49 89 d4             	mov    %rdx,%r12
    5ff5:	55                   	push   %rbp
    5ff6:	48 89 f5             	mov    %rsi,%rbp
    5ff9:	31 f6                	xor    %esi,%esi
    5ffb:	53                   	push   %rbx
    5ffc:	e8 4f c2 ff ff       	call   2250 <setlocale@plt>
    6001:	48 85 c0             	test   %rax,%rax
    6004:	74 5a                	je     6060 <__cxa_finalize@plt+0x3d60>
    6006:	48 89 c7             	mov    %rax,%rdi
    6009:	48 89 c3             	mov    %rax,%rbx
    600c:	e8 ff c0 ff ff       	call   2110 <strlen@plt>
    6011:	4c 39 e0             	cmp    %r12,%rax
    6014:	72 12                	jb     6028 <__cxa_finalize@plt+0x3d28>
    6016:	4d 85 e4             	test   %r12,%r12
    6019:	75 25                	jne    6040 <__cxa_finalize@plt+0x3d40>
    601b:	5b                   	pop    %rbx
    601c:	b8 22 00 00 00       	mov    $0x22,%eax
    6021:	5d                   	pop    %rbp
    6022:	41 5c                	pop    %r12
    6024:	c3                   	ret
    6025:	0f 1f 00             	nopl   (%rax)
    6028:	48 8d 50 01          	lea    0x1(%rax),%rdx
    602c:	48 89 de             	mov    %rbx,%rsi
    602f:	48 89 ef             	mov    %rbp,%rdi
    6032:	e8 a9 c1 ff ff       	call   21e0 <memcpy@plt>
    6037:	31 c0                	xor    %eax,%eax
    6039:	5b                   	pop    %rbx
    603a:	5d                   	pop    %rbp
    603b:	41 5c                	pop    %r12
    603d:	c3                   	ret
    603e:	66 90                	xchg   %ax,%ax
    6040:	49 8d 54 24 ff       	lea    -0x1(%r12),%rdx
    6045:	48 89 de             	mov    %rbx,%rsi
    6048:	48 89 ef             	mov    %rbp,%rdi
    604b:	e8 90 c1 ff ff       	call   21e0 <memcpy@plt>
    6050:	42 c6 44 25 ff 00    	movb   $0x0,-0x1(%rbp,%r12,1)
    6056:	eb c3                	jmp    601b <__cxa_finalize@plt+0x3d1b>
    6058:	0f 1f 84 00 00 00 00 	nopl   0x0(%rax,%rax,1)
    605f:	00 
    6060:	4d 85 e4             	test   %r12,%r12
    6063:	74 04                	je     6069 <__cxa_finalize@plt+0x3d69>
    6065:	c6 45 00 00          	movb   $0x0,0x0(%rbp)
    6069:	b8 16 00 00 00       	mov    $0x16,%eax
    606e:	eb c9                	jmp    6039 <__cxa_finalize@plt+0x3d39>
    6070:	31 f6                	xor    %esi,%esi
    6072:	e9 d9 c1 ff ff       	jmp    2250 <setlocale@plt>
    6077:	66 0f 1f 84 00 00 00 	nopw   0x0(%rax,%rax,1)
    607e:	00 00 
    6080:	48 8b 15 01 41 00 00 	mov    0x4101(%rip),%rdx        # a188 <__cxa_finalize@plt+0x7e88>
    6087:	31 f6                	xor    %esi,%esi
    6089:	e9 02 c2 ff ff       	jmp    2290 <__cxa_atexit@plt>
